GAS LISTING /tmp/ccOr00ZN.s 			page 1


   1               		.file	"arhat.c"
   2               	__SP_H__ = 0x3e
   3               	__SP_L__ = 0x3d
   4               	__SREG__ = 0x3f
   5               	__RAMPZ__ = 0x3b
   6               	__tmp_reg__ = 0
   7               	__zero_reg__ = 1
   8               		.text
   9               	.Ltext0:
  10               		.cfi_sections	.debug_frame
  11               		.section	.text.getOvfCount,"ax",@progbits
  12               	.global	getOvfCount
  13               		.type	getOvfCount, @function
  14               	getOvfCount:
  15               	.LFB1:
  16               		.file 1 "/home/arhat109/Arduino/libraries/Arhat/arhat.c"
   1:/home/arhat109/Arduino/libraries/Arhat/arhat.c **** /**
   2:/home/arhat109/Arduino/libraries/Arhat/arhat.c ****  * Simple function for calc time and delays.
   3:/home/arhat109/Arduino/libraries/Arhat/arhat.c ****  *
   4:/home/arhat109/Arduino/libraries/Arhat/arhat.c ****  * use timer0 as default and prescaler 1/64 for each 4 microseconds with 16Mhz CLK.
   5:/home/arhat109/Arduino/libraries/Arhat/arhat.c ****  * By default timer0 is overflowing each 256 ticks at 1024 microseconds.
   6:/home/arhat109/Arduino/libraries/Arhat/arhat.c ****  *
   7:/home/arhat109/Arduino/libraries/Arhat/arhat.c ****  * For use other timer you need predefine all constants in block TIME_DEFAULT
   8:/home/arhat109/Arduino/libraries/Arhat/arhat.c ****  * and recompile this file.
   9:/home/arhat109/Arduino/libraries/Arhat/arhat.c ****  *
  10:/home/arhat109/Arduino/libraries/Arhat/arhat.c ****  * For simple use, you may rename this file to wiring.c and replace it.
  11:/home/arhat109/Arduino/libraries/Arhat/arhat.c ****  *
  12:/home/arhat109/Arduino/libraries/Arhat/arhat.c ****  * @author Arhat109: arhat109@mail.ru
  13:/home/arhat109/Arduino/libraries/Arhat/arhat.c ****  *
  14:/home/arhat109/Arduino/libraries/Arhat/arhat.c ****  * license agreement:
  15:/home/arhat109/Arduino/libraries/Arhat/arhat.c ****  * You use this software on own your risks. No claims will be accepted.
  16:/home/arhat109/Arduino/libraries/Arhat/arhat.c ****  * You may use this file any way, but cannot change
  17:/home/arhat109/Arduino/libraries/Arhat/arhat.c ****  * or delete tag @author above (you may append your tag @author) and must keeping this rows:
  18:/home/arhat109/Arduino/libraries/Arhat/arhat.c ****  *
  19:/home/arhat109/Arduino/libraries/Arhat/arhat.c ****  * This is free software, not any pay. But you may donate some money to phone +7-951-388-2793
  20:/home/arhat109/Arduino/libraries/Arhat/arhat.c ****  */
  21:/home/arhat109/Arduino/libraries/Arhat/arhat.c **** 
  22:/home/arhat109/Arduino/libraries/Arhat/arhat.c **** #define ARHAT_C 1           // need for includes interrupt function in this file only.
  23:/home/arhat109/Arduino/libraries/Arhat/arhat.c **** #define ARHAT_MODE 3        // need in this file!
  24:/home/arhat109/Arduino/libraries/Arhat/arhat.c **** #include "arhat.h"
  25:/home/arhat109/Arduino/libraries/Arhat/arhat.c **** 
  26:/home/arhat109/Arduino/libraries/Arhat/arhat.c **** // defaults timer0 timers functions and interrupts such in wiring
  27:/home/arhat109/Arduino/libraries/Arhat/arhat.c **** // –ö–æ–Ω—Å—Ç–∞–Ω—Ç—ã –Ω–∞—Å—Ç—Ä–æ–π–∫–∏ —Ç–∞–π–º–µ—Ä–∞ 0 —Å–æ–≤–º–µ—Å—Ç–∏–º—ã–µ —Å wiring: —Ç–∞–π–
  28:/home/arhat109/Arduino/libraries/Arhat/arhat.c **** #ifndef TIME_DEFAULT                    /* all defaults for F_CPU=16Mhz ONLY! */
  29:/home/arhat109/Arduino/libraries/Arhat/arhat.c **** #  define TIME_DEFAULT             0
  30:/home/arhat109/Arduino/libraries/Arhat/arhat.c **** #  define TIME_MAX_COUNTER       256    /* max conter+1                                            
  31:/home/arhat109/Arduino/libraries/Arhat/arhat.c **** #  define TIME_PRESCALLER         64
  32:/home/arhat109/Arduino/libraries/Arhat/arhat.c **** #  define TIME_MODE                3    /* WGM10 = 1, WGM00 = 1 fast-PWM mode for timer0           
  33:/home/arhat109/Arduino/libraries/Arhat/arhat.c **** #  define TIME_TICK_MCS            4    /* 1 tick by prescaler:[0.25, 0.5, 4, 16, 64] in microsecon
  34:/home/arhat109/Arduino/libraries/Arhat/arhat.c **** #  define TIME_SHIFT               2    /* From prescaller: 1=>4, 8=>1, 64=>2, 256=>4, 1024=>6     
  35:/home/arhat109/Arduino/libraries/Arhat/arhat.c **** #  define TIME_MCS2MS      1024/1000    /* ==[16,128,1024,4096,16384]/1000 by prescaler            
  36:/home/arhat109/Arduino/libraries/Arhat/arhat.c **** #  define TIME_ISR               OVF    /* what interrupt name using for this timer                
  37:/home/arhat109/Arduino/libraries/Arhat/arhat.c **** #endif
  38:/home/arhat109/Arduino/libraries/Arhat/arhat.c **** 
  39:/home/arhat109/Arduino/libraries/Arhat/arhat.c **** volatile uint32_t       timer0_overflow_count   = 0UL;  // timer overflow counter. –°—á–µ—Ç—á–∏–∫ –
  40:/home/arhat109/Arduino/libraries/Arhat/arhat.c **** volatile void        (* timer0_hook)(void)      = 0;    // hook function pointer. —Ñ—É–Ω–∫—Ü–∏—è "—
  41:/home/arhat109/Arduino/libraries/Arhat/arhat.c **** uint8_t                 timer0_hook_run         = 0;    // hook is running. Blocking twice calling.
GAS LISTING /tmp/ccOr00ZN.s 			page 2


  42:/home/arhat109/Arduino/libraries/Arhat/arhat.c **** 
  43:/home/arhat109/Arduino/libraries/Arhat/arhat.c **** /**
  44:/home/arhat109/Arduino/libraries/Arhat/arhat.c ****  * Volatile read count TOV interrupt
  45:/home/arhat109/Arduino/libraries/Arhat/arhat.c ****  * 24 bytes, 19 cycles (1.1875mcsec.)
  46:/home/arhat109/Arduino/libraries/Arhat/arhat.c ****  */
  47:/home/arhat109/Arduino/libraries/Arhat/arhat.c **** uint32_t getOvfCount()
  48:/home/arhat109/Arduino/libraries/Arhat/arhat.c **** {
  17               		.loc 1 48 0
  18               		.cfi_startproc
  19               	/* prologue: function */
  20               	/* frame size = 0 */
  21               	/* stack size = 0 */
  22               	.L__stack_usage = 0
  49:/home/arhat109/Arduino/libraries/Arhat/arhat.c ****   uint8_t       _sreg = SREG;
  23               		.loc 1 49 0
  24 0000 2FB7      		in r18,__SREG__
  25               	.LVL0:
  50:/home/arhat109/Arduino/libraries/Arhat/arhat.c ****   uint32_t      _count;
  51:/home/arhat109/Arduino/libraries/Arhat/arhat.c **** 
  52:/home/arhat109/Arduino/libraries/Arhat/arhat.c ****   cli();
  26               		.loc 1 52 0
  27               	/* #APP */
  28               	 ;  52 "/home/arhat109/Arduino/libraries/Arhat/arhat.c" 1
  29 0002 F894      		cli
  30               	 ;  0 "" 2
  53:/home/arhat109/Arduino/libraries/Arhat/arhat.c ****   _count = timer0_overflow_count;
  31               		.loc 1 53 0
  32               	/* #NOAPP */
  33 0004 6091 0000 		lds r22,timer0_overflow_count
  34 0008 7091 0000 		lds r23,timer0_overflow_count+1
  35 000c 8091 0000 		lds r24,timer0_overflow_count+2
  36 0010 9091 0000 		lds r25,timer0_overflow_count+3
  37               	.LVL1:
  54:/home/arhat109/Arduino/libraries/Arhat/arhat.c ****   SREG = _sreg;
  38               		.loc 1 54 0
  39 0014 2FBF      		out __SREG__,r18
  55:/home/arhat109/Arduino/libraries/Arhat/arhat.c **** 
  56:/home/arhat109/Arduino/libraries/Arhat/arhat.c ****   return _count;
  57:/home/arhat109/Arduino/libraries/Arhat/arhat.c **** }
  40               		.loc 1 57 0
  41 0016 0895      		ret
  42               		.cfi_endproc
  43               	.LFE1:
  44               		.size	getOvfCount, .-getOvfCount
  45               		.section	.text.setTimerHook,"ax",@progbits
  46               	.global	setTimerHook
  47               		.type	setTimerHook, @function
  48               	setTimerHook:
  49               	.LFB2:
  58:/home/arhat109/Arduino/libraries/Arhat/arhat.c **** 
  59:/home/arhat109/Arduino/libraries/Arhat/arhat.c **** /**
  60:/home/arhat109/Arduino/libraries/Arhat/arhat.c ****  * Atomic set timer0_hook
  61:/home/arhat109/Arduino/libraries/Arhat/arhat.c ****  * @return TimerHookProc -- previous proc | 0
  62:/home/arhat109/Arduino/libraries/Arhat/arhat.c ****  */
  63:/home/arhat109/Arduino/libraries/Arhat/arhat.c **** TimerHookProc setTimerHook(TimerHookProc proc)
  64:/home/arhat109/Arduino/libraries/Arhat/arhat.c **** {
  50               		.loc 1 64 0
GAS LISTING /tmp/ccOr00ZN.s 			page 3


  51               		.cfi_startproc
  52               	.LVL2:
  53               	/* prologue: function */
  54               	/* frame size = 0 */
  55               	/* stack size = 0 */
  56               	.L__stack_usage = 0
  57 0000 9C01      		movw r18,r24
  65:/home/arhat109/Arduino/libraries/Arhat/arhat.c ****   uint8_t       _sreg = SREG;
  58               		.loc 1 65 0
  59 0002 4FB7      		in r20,__SREG__
  60               	.LVL3:
  66:/home/arhat109/Arduino/libraries/Arhat/arhat.c ****   TimerHookProc _res;
  67:/home/arhat109/Arduino/libraries/Arhat/arhat.c **** 
  68:/home/arhat109/Arduino/libraries/Arhat/arhat.c ****   cli();
  61               		.loc 1 68 0
  62               	/* #APP */
  63               	 ;  68 "/home/arhat109/Arduino/libraries/Arhat/arhat.c" 1
  64 0004 F894      		cli
  65               	 ;  0 "" 2
  69:/home/arhat109/Arduino/libraries/Arhat/arhat.c ****   _res = timer0_hook;
  66               		.loc 1 69 0
  67               	/* #NOAPP */
  68 0006 8091 0000 		lds r24,timer0_hook
  69 000a 9091 0000 		lds r25,timer0_hook+1
  70               	.LVL4:
  70:/home/arhat109/Arduino/libraries/Arhat/arhat.c ****   timer0_hook = proc;
  71               		.loc 1 70 0
  72 000e 3093 0000 		sts timer0_hook+1,r19
  73 0012 2093 0000 		sts timer0_hook,r18
  71:/home/arhat109/Arduino/libraries/Arhat/arhat.c ****   SREG = _sreg;
  74               		.loc 1 71 0
  75 0016 4FBF      		out __SREG__,r20
  72:/home/arhat109/Arduino/libraries/Arhat/arhat.c **** 
  73:/home/arhat109/Arduino/libraries/Arhat/arhat.c ****   return _res;
  74:/home/arhat109/Arduino/libraries/Arhat/arhat.c **** }
  76               		.loc 1 74 0
  77 0018 0895      		ret
  78               		.cfi_endproc
  79               	.LFE2:
  80               		.size	setTimerHook, .-setTimerHook
  81               		.section	.text.time_micros,"ax",@progbits
  82               	.global	time_micros
  83               		.type	time_micros, @function
  84               	time_micros:
  85               	.LFB3:
  75:/home/arhat109/Arduino/libraries/Arhat/arhat.c **** 
  76:/home/arhat109/Arduino/libraries/Arhat/arhat.c **** /**
  77:/home/arhat109/Arduino/libraries/Arhat/arhat.c ****  * Return microseconds 0..up to 1 hours 11.4 minutes are identical with wiring.c
  78:/home/arhat109/Arduino/libraries/Arhat/arhat.c ****  * "C" code = 76 bytes, "Asm" = 56 bytes and 42 cycles.
  79:/home/arhat109/Arduino/libraries/Arhat/arhat.c ****  */
  80:/home/arhat109/Arduino/libraries/Arhat/arhat.c **** uint32_t time_micros()             // return in r22..r25
  81:/home/arhat109/Arduino/libraries/Arhat/arhat.c **** {
  86               		.loc 1 81 0
  87               		.cfi_startproc
  88               	/* prologue: function */
  89               	/* frame size = 0 */
  90               	/* stack size = 0 */
GAS LISTING /tmp/ccOr00ZN.s 			page 4


  91               	.L__stack_usage = 0
  82:/home/arhat109/Arduino/libraries/Arhat/arhat.c **** /*
  83:/home/arhat109/Arduino/libraries/Arhat/arhat.c ****  * register struct{ uint8_t timer, uint24_t micro } retVal; -- can't compile right!
  84:/home/arhat109/Arduino/libraries/Arhat/arhat.c ****  * retVal must be in r22,r23,r24,r25 registers for right return avr-gcc convention!
  85:/home/arhat109/Arduino/libraries/Arhat/arhat.c ****  *
  86:/home/arhat109/Arduino/libraries/Arhat/arhat.c ****     uint8_t     oldSREG = SREG;         // r27
  87:/home/arhat109/Arduino/libraries/Arhat/arhat.c ****     uint8_t     timer, tov;             // r22, r26
  88:/home/arhat109/Arduino/libraries/Arhat/arhat.c ****     uint32_t    micro;                  // r23,r24,r25
  89:/home/arhat109/Arduino/libraries/Arhat/arhat.c **** 
  90:/home/arhat109/Arduino/libraries/Arhat/arhat.c ****     // read all into local: volatile!
  91:/home/arhat109/Arduino/libraries/Arhat/arhat.c ****     cli();
  92:/home/arhat109/Arduino/libraries/Arhat/arhat.c ****       micro = timer0_overflow_count;		// not use h-byte!
  93:/home/arhat109/Arduino/libraries/Arhat/arhat.c ****       timer = timerCount(TIME_DEFAULT);
  94:/home/arhat109/Arduino/libraries/Arhat/arhat.c **** //      tov = timerIFlag(TIME_DEFAULT,OVF);	// bit0! =={0,1} only!
  95:/home/arhat109/Arduino/libraries/Arhat/arhat.c ****       if ( timerIFlag(TIME_DEFAULT,OVF) && (timer<255) ){ micro++; }
  96:/home/arhat109/Arduino/libraries/Arhat/arhat.c ****     SREG = oldSREG;
  97:/home/arhat109/Arduino/libraries/Arhat/arhat.c **** 
  98:/home/arhat109/Arduino/libraries/Arhat/arhat.c ****     // this is a precompiler #IF because is constants:
  99:/home/arhat109/Arduino/libraries/Arhat/arhat.c ****     if( TIME_TICK_MCS>1 ) {
 100:/home/arhat109/Arduino/libraries/Arhat/arhat.c ****       return (((micro<<8)+timer)<<TIME_SHIFT)+3;	// +3 microsec. fot this routine
 101:/home/arhat109/Arduino/libraries/Arhat/arhat.c ****     } else {
 102:/home/arhat109/Arduino/libraries/Arhat/arhat.c ****       return (((micro<<8)+timer)>>TIME_SHIFT)+3;
 103:/home/arhat109/Arduino/libraries/Arhat/arhat.c ****     }
 104:/home/arhat109/Arduino/libraries/Arhat/arhat.c **** */
 105:/home/arhat109/Arduino/libraries/Arhat/arhat.c ****   asm volatile (
  92               		.loc 1 105 0
  93               	/* #APP */
  94               	 ;  105 "/home/arhat109/Arduino/libraries/Arhat/arhat.c" 1
  95 0000 AF93      		  push r26                 ;1
  96 0002 AFB7      		  in r26,__SREG__          ;1 oldSREG = SREG
  97 0004 F894      		  cli                      ;1
  98 0006 66B5      		  in r22,0x26              ;1 timer = timerCount(TIME_DEFAULT)
  99 0008 7091 0000 		  lds r23,timer0_overflow_count        ;3 micro = (uint24_t)timer0_overflow_count;
 100 000c 8091 0000 		  lds r24,timer0_overflow_count+1      ;3
 101 0010 9091 0000 		  lds r25,timer0_overflow_count+2      ;3 now: {r22..25}=(micro<<8)+timer!
 102 0014 A89B      		  sbis 0x15,0              ;1/2 TOV==1? ->P–°+1
 103 0016 00C0      		   rjmp .skip1
 104 0018 6F3F      		  cpi  r22,lo8(-1)         ;1 ?!? timer == 255?
 105 001a 01F0      		  breq .skip1
 106 001c 0894      		    sec                    ;1 set carry flag
 107 001e 711D      		    adc   r23,__zero_reg__ ;1 micro++
 108 0020 811D      		    adc   r24,__zero_reg__ ;1
 109 0022 911D      		    adc   r25,__zero_reg__ ;1
 110               		.skip1:
 111 0024 AFBF      		  out __SREG__,r26         ;1 SREG = oldSREG, tmp_reg not use!
 112 0026 A2E0      		  ldi  r26,2               ;3 load TIME_SHIFT counter
 113               		.shift1: 
 114               		
 115               	 ;  0 "" 2
 106:/home/arhat109/Arduino/libraries/Arhat/arhat.c ****     "  push r26                 ;1\n\t"
 107:/home/arhat109/Arduino/libraries/Arhat/arhat.c ****     "  in r26,__SREG__          ;1 oldSREG = SREG\n\t"
 108:/home/arhat109/Arduino/libraries/Arhat/arhat.c ****     "  cli                      ;1\n\t"
 109:/home/arhat109/Arduino/libraries/Arhat/arhat.c ****     "  in r22,0x26              ;1 timer = timerCount(TIME_DEFAULT)\n\t"
 110:/home/arhat109/Arduino/libraries/Arhat/arhat.c ****     "  lds r23,timer0_overflow_count        ;3 micro = (uint24_t)timer0_overflow_count;\n\t"
 111:/home/arhat109/Arduino/libraries/Arhat/arhat.c ****     "  lds r24,timer0_overflow_count+1      ;3\n\t"
 112:/home/arhat109/Arduino/libraries/Arhat/arhat.c ****     "  lds r25,timer0_overflow_count+2      ;3 now: {r22..25}=(micro<<8)+timer!\n\t"
 113:/home/arhat109/Arduino/libraries/Arhat/arhat.c ****     "  sbis 0x15,0              ;1/2 TOV==1? ->P–°+1\n\t"
GAS LISTING /tmp/ccOr00ZN.s 			page 5


 114:/home/arhat109/Arduino/libraries/Arhat/arhat.c ****     "   rjmp .skip1\n\t"
 115:/home/arhat109/Arduino/libraries/Arhat/arhat.c ****     "  cpi  r22,lo8(-1)         ;1 ?!? timer == 255?\n\t"
 116:/home/arhat109/Arduino/libraries/Arhat/arhat.c ****     "  breq .skip1\n\t"
 117:/home/arhat109/Arduino/libraries/Arhat/arhat.c ****     "    sec                    ;1 set carry flag\n\t"
 118:/home/arhat109/Arduino/libraries/Arhat/arhat.c ****     "    adc   r23,__zero_reg__ ;1 micro++\n\t"
 119:/home/arhat109/Arduino/libraries/Arhat/arhat.c ****     "    adc   r24,__zero_reg__ ;1\n\t"
 120:/home/arhat109/Arduino/libraries/Arhat/arhat.c ****     "    adc   r25,__zero_reg__ ;1\n\t"
 121:/home/arhat109/Arduino/libraries/Arhat/arhat.c ****     ".skip1:\n\t"
 122:/home/arhat109/Arduino/libraries/Arhat/arhat.c ****     "  out __SREG__,r26         ;1 SREG = oldSREG, tmp_reg not use!\n\t"
 123:/home/arhat109/Arduino/libraries/Arhat/arhat.c **** 
 124:/home/arhat109/Arduino/libraries/Arhat/arhat.c ****     "  ldi  r26,2               ;3 load TIME_SHIFT counter\n\t"
 125:/home/arhat109/Arduino/libraries/Arhat/arhat.c ****     ".shift1: \n\t"
 126:/home/arhat109/Arduino/libraries/Arhat/arhat.c ****   ::);
 127:/home/arhat109/Arduino/libraries/Arhat/arhat.c ****   if( TIME_TICK_MCS>1 ) {
 128:/home/arhat109/Arduino/libraries/Arhat/arhat.c ****     asm volatile (
 116               		.loc 1 128 0
 117               	 ;  128 "/home/arhat109/Arduino/libraries/Arhat/arhat.c" 1
 118 0028 660F      		  lsl r22                ;1*2 retVal<<TIME_SHIFT
 119 002a 771F      		  rol r23                ;1*2
 120 002c 881F      		  rol r24                ;1*2
 121 002e 991F      		  rol r25                ;1*2
 122               		
 123               	 ;  0 "" 2
 129:/home/arhat109/Arduino/libraries/Arhat/arhat.c ****       "  lsl r22                ;1*2 retVal<<TIME_SHIFT\n\t"
 130:/home/arhat109/Arduino/libraries/Arhat/arhat.c ****       "  rol r23                ;1*2\n\t"
 131:/home/arhat109/Arduino/libraries/Arhat/arhat.c ****       "  rol r24                ;1*2\n\t"
 132:/home/arhat109/Arduino/libraries/Arhat/arhat.c ****       "  rol r25                ;1*2\n\t"
 133:/home/arhat109/Arduino/libraries/Arhat/arhat.c ****     ::);
 134:/home/arhat109/Arduino/libraries/Arhat/arhat.c ****   } else {
 135:/home/arhat109/Arduino/libraries/Arhat/arhat.c ****     asm volatile (
 136:/home/arhat109/Arduino/libraries/Arhat/arhat.c ****       "  lsr r22                ;1*2 retVal>>TIME_SHIFT\n\t"
 137:/home/arhat109/Arduino/libraries/Arhat/arhat.c ****       "  ror r23                ;1*2\n\t"
 138:/home/arhat109/Arduino/libraries/Arhat/arhat.c ****       "  ror r24                ;1*2\n\t"
 139:/home/arhat109/Arduino/libraries/Arhat/arhat.c ****       "  ror r25                ;1*2\n\t"
 140:/home/arhat109/Arduino/libraries/Arhat/arhat.c ****     ::);
 141:/home/arhat109/Arduino/libraries/Arhat/arhat.c ****   }
 142:/home/arhat109/Arduino/libraries/Arhat/arhat.c ****   asm volatile (
 124               		.loc 1 142 0
 125               	 ;  142 "/home/arhat109/Arduino/libraries/Arhat/arhat.c" 1
 126 0030 AA95      		  dec r26                  ;1*2 TIME_SHIFT counter--
 127 0032 01F4      		  brne .shift1             ;1+2
 128 0034 AF91      		  pop  r26                 ;1
 129               		
 130               	 ;  0 "" 2
 143:/home/arhat109/Arduino/libraries/Arhat/arhat.c ****     "  dec r26                  ;1*2 TIME_SHIFT counter--\n\t"
 144:/home/arhat109/Arduino/libraries/Arhat/arhat.c ****     "  brne .shift1             ;1+2\n\t"
 145:/home/arhat109/Arduino/libraries/Arhat/arhat.c **** //    "  subi r22,-2              ;1 retVal += 2[.25] mcsec for this routine\n\t"
 146:/home/arhat109/Arduino/libraries/Arhat/arhat.c **** //    "  sbci r23,-1              ;1\n\t"
 147:/home/arhat109/Arduino/libraries/Arhat/arhat.c **** //    "  sbci r24,-1              ;1\n\t"
 148:/home/arhat109/Arduino/libraries/Arhat/arhat.c **** //    "  sbci r25,-1              ;1\n\t"
 149:/home/arhat109/Arduino/libraries/Arhat/arhat.c ****     "  pop  r26                 ;1\n\t"
 150:/home/arhat109/Arduino/libraries/Arhat/arhat.c ****   ::);
 151:/home/arhat109/Arduino/libraries/Arhat/arhat.c **** }
 131               		.loc 1 151 0
 132               	/* #NOAPP */
 133 0036 0895      		ret
 134               		.cfi_endproc
GAS LISTING /tmp/ccOr00ZN.s 			page 6


 135               	.LFE3:
 136               		.size	time_micros, .-time_micros
 137               		.section	.text.time_millis,"ax",@progbits
 138               	.global	time_millis
 139               		.type	time_millis, @function
 140               	time_millis:
 141               	.LFB4:
 152:/home/arhat109/Arduino/libraries/Arhat/arhat.c **** 
 153:/home/arhat109/Arduino/libraries/Arhat/arhat.c **** /**
 154:/home/arhat109/Arduino/libraries/Arhat/arhat.c ****  * Return current time into milliseconds upto 49.7 days
 155:/home/arhat109/Arduino/libraries/Arhat/arhat.c ****  * corrected for timer counter current value and fract data
 156:/home/arhat109/Arduino/libraries/Arhat/arhat.c ****  * 102 bytes, long time: use udiv libc function!
 157:/home/arhat109/Arduino/libraries/Arhat/arhat.c ****  */
 158:/home/arhat109/Arduino/libraries/Arhat/arhat.c **** uint32_t time_millis()
 159:/home/arhat109/Arduino/libraries/Arhat/arhat.c **** {
 142               		.loc 1 159 0
 143               		.cfi_startproc
 144 0000 CF93      		push r28
 145               	.LCFI0:
 146               		.cfi_def_cfa_offset 4
 147               		.cfi_offset 28, -3
 148 0002 DF93      		push r29
 149               	.LCFI1:
 150               		.cfi_def_cfa_offset 5
 151               		.cfi_offset 29, -4
 152               	/* prologue: function */
 153               	/* frame size = 0 */
 154               	/* stack size = 2 */
 155               	.L__stack_usage = 2
 160:/home/arhat109/Arduino/libraries/Arhat/arhat.c ****     uint16_t    timer;
 161:/home/arhat109/Arduino/libraries/Arhat/arhat.c ****     uint8_t     oldSREG = SREG, tov=0;
 156               		.loc 1 161 0
 157 0004 8FB7      		in r24,__SREG__
 158               	.LVL5:
 162:/home/arhat109/Arduino/libraries/Arhat/arhat.c **** 
 163:/home/arhat109/Arduino/libraries/Arhat/arhat.c ****     cli();
 159               		.loc 1 163 0
 160               	/* #APP */
 161               	 ;  163 "/home/arhat109/Arduino/libraries/Arhat/arhat.c" 1
 162 0006 F894      		cli
 163               	 ;  0 "" 2
 164:/home/arhat109/Arduino/libraries/Arhat/arhat.c ****       timer = timerCount(TIME_DEFAULT);
 164               		.loc 1 164 0
 165               	/* #NOAPP */
 166 0008 D6B5      		in r29,0x26
 167               	.LVL6:
 165:/home/arhat109/Arduino/libraries/Arhat/arhat.c ****       if ( timerIFlag(TIME_DEFAULT,OVF) ){ tov++; }
 168               		.loc 1 165 0
 169 000a C5B3      		in r28,0x15
 170               	.LVL7:
 166:/home/arhat109/Arduino/libraries/Arhat/arhat.c ****     SREG = oldSREG;
 171               		.loc 1 166 0
 172 000c 8FBF      		out __SREG__,r24
 173               	.LVL8:
 167:/home/arhat109/Arduino/libraries/Arhat/arhat.c **** 
 168:/home/arhat109/Arduino/libraries/Arhat/arhat.c ****     timer = (TIME_TICK_MCS>1 ? timer<<TIME_SHIFT : timer>>TIME_SHIFT);
 169:/home/arhat109/Arduino/libraries/Arhat/arhat.c ****     return (timer0_overflow_count * TIME_MCS2MS)+tov+(timer>1000? 1 : 0);
GAS LISTING /tmp/ccOr00ZN.s 			page 7


 174               		.loc 1 169 0
 175 000e 6091 0000 		lds r22,timer0_overflow_count
 176 0012 7091 0000 		lds r23,timer0_overflow_count+1
 177 0016 8091 0000 		lds r24,timer0_overflow_count+2
 178 001a 9091 0000 		lds r25,timer0_overflow_count+3
 165:/home/arhat109/Arduino/libraries/Arhat/arhat.c ****     SREG = oldSREG;
 179               		.loc 1 165 0
 180 001e C170      		andi r28,lo8(1)
 181               	.LVL9:
 182               		.loc 1 169 0
 183 0020 2AE0      		ldi r18,10
 184               		1:
 185 0022 660F      		lsl r22
 186 0024 771F      		rol r23
 187 0026 881F      		rol r24
 188 0028 991F      		rol r25
 189 002a 2A95      		dec r18
 190 002c 01F4      		brne 1b
 191 002e 28EE      		ldi r18,lo8(-24)
 192 0030 33E0      		ldi r19,lo8(3)
 193 0032 40E0      		ldi r20,0
 194 0034 50E0      		ldi r21,0
 195 0036 0E94 0000 		call __udivmodsi4
 196 003a 2C0F      		add r18,r28
 197 003c 311D      		adc r19,__zero_reg__
 198 003e 411D      		adc r20,__zero_reg__
 199 0040 511D      		adc r21,__zero_reg__
 200 0042 81E0      		ldi r24,lo8(1)
 201 0044 90E0      		ldi r25,0
 202 0046 A0E0      		ldi r26,0
 203 0048 B0E0      		ldi r27,0
 204               	.LVL10:
 205 004a DB3F      		cpi r29,lo8(-5)
 206 004c 00F4      		brsh .L5
 207 004e 80E0      		ldi r24,0
 208 0050 90E0      		ldi r25,0
 209 0052 DC01      		movw r26,r24
 210               	.L5:
 211 0054 BC01      		movw r22,r24
 212 0056 CD01      		movw r24,r26
 213 0058 620F      		add r22,r18
 214 005a 731F      		adc r23,r19
 215 005c 841F      		adc r24,r20
 216 005e 951F      		adc r25,r21
 217               	/* epilogue start */
 170:/home/arhat109/Arduino/libraries/Arhat/arhat.c **** }
 218               		.loc 1 170 0
 219 0060 DF91      		pop r29
 220               	.LVL11:
 221 0062 CF91      		pop r28
 222               	.LVL12:
 223 0064 0895      		ret
 224               		.cfi_endproc
 225               	.LFE4:
 226               		.size	time_millis, .-time_millis
 227               		.section	.text.time_delay,"ax",@progbits
 228               	.global	time_delay
GAS LISTING /tmp/ccOr00ZN.s 			page 8


 229               		.type	time_delay, @function
 230               	time_delay:
 231               	.LFB5:
 171:/home/arhat109/Arduino/libraries/Arhat/arhat.c **** 
 172:/home/arhat109/Arduino/libraries/Arhat/arhat.c **** /**
 173:/home/arhat109/Arduino/libraries/Arhat/arhat.c ****  * identical with wiring.c
 174:/home/arhat109/Arduino/libraries/Arhat/arhat.c ****  * @deprecated: big parameter (uint32_t) @see time_delay16()
 175:/home/arhat109/Arduino/libraries/Arhat/arhat.c ****  */
 176:/home/arhat109/Arduino/libraries/Arhat/arhat.c **** void time_delay(uint32_t interval)
 177:/home/arhat109/Arduino/libraries/Arhat/arhat.c **** {
 232               		.loc 1 177 0
 233               		.cfi_startproc
 234               	.LVL13:
 235 0000 CF92      		push r12
 236               	.LCFI2:
 237               		.cfi_def_cfa_offset 4
 238               		.cfi_offset 12, -3
 239 0002 DF92      		push r13
 240               	.LCFI3:
 241               		.cfi_def_cfa_offset 5
 242               		.cfi_offset 13, -4
 243 0004 EF92      		push r14
 244               	.LCFI4:
 245               		.cfi_def_cfa_offset 6
 246               		.cfi_offset 14, -5
 247 0006 FF92      		push r15
 248               	.LCFI5:
 249               		.cfi_def_cfa_offset 7
 250               		.cfi_offset 15, -6
 251 0008 CF93      		push r28
 252               	.LCFI6:
 253               		.cfi_def_cfa_offset 8
 254               		.cfi_offset 28, -7
 255 000a DF93      		push r29
 256               	.LCFI7:
 257               		.cfi_def_cfa_offset 9
 258               		.cfi_offset 29, -8
 259               	/* prologue: function */
 260               	/* frame size = 0 */
 261               	/* stack size = 6 */
 262               	.L__stack_usage = 6
 263 000c 6B01      		movw r12,r22
 264 000e 7C01      		movw r14,r24
 178:/home/arhat109/Arduino/libraries/Arhat/arhat.c ****     uint16_t start = (uint16_t)micros();
 265               		.loc 1 178 0
 266 0010 0E94 0000 		call time_micros
 267               	.LVL14:
 268 0014 EB01      		movw r28,r22
 269               	.LVL15:
 270               	.L8:
 179:/home/arhat109/Arduino/libraries/Arhat/arhat.c **** 
 180:/home/arhat109/Arduino/libraries/Arhat/arhat.c ****     while (interval > 0) {
 271               		.loc 1 180 0 discriminator 1
 272 0016 C114      		cp r12,__zero_reg__
 273 0018 D104      		cpc r13,__zero_reg__
 274 001a E104      		cpc r14,__zero_reg__
 275 001c F104      		cpc r15,__zero_reg__
GAS LISTING /tmp/ccOr00ZN.s 			page 9


 276 001e 01F0      		breq .L11
 181:/home/arhat109/Arduino/libraries/Arhat/arhat.c ****       if (((uint16_t)micros() - start) >= 1000) {
 277               		.loc 1 181 0
 278 0020 0E94 0000 		call time_micros
 279               	.LVL16:
 280 0024 6C1B      		sub r22,r28
 281 0026 7D0B      		sbc r23,r29
 282 0028 683E      		cpi r22,-24
 283 002a 7340      		sbci r23,3
 284 002c 00F0      		brlo .L8
 182:/home/arhat109/Arduino/libraries/Arhat/arhat.c ****         interval--;
 285               		.loc 1 182 0
 286 002e 81E0      		ldi r24,1
 287 0030 C81A      		sub r12,r24
 288 0032 D108      		sbc r13,__zero_reg__
 289 0034 E108      		sbc r14,__zero_reg__
 290 0036 F108      		sbc r15,__zero_reg__
 291               	.LVL17:
 183:/home/arhat109/Arduino/libraries/Arhat/arhat.c ****         start += 1000;
 292               		.loc 1 183 0
 293 0038 C851      		subi r28,24
 294 003a DC4F      		sbci r29,-4
 295               	.LVL18:
 296 003c 00C0      		rjmp .L8
 297               	.L11:
 298               	/* epilogue start */
 184:/home/arhat109/Arduino/libraries/Arhat/arhat.c ****       }
 185:/home/arhat109/Arduino/libraries/Arhat/arhat.c ****     }
 186:/home/arhat109/Arduino/libraries/Arhat/arhat.c **** }
 299               		.loc 1 186 0
 300 003e DF91      		pop r29
 301 0040 CF91      		pop r28
 302               	.LVL19:
 303 0042 FF90      		pop r15
 304 0044 EF90      		pop r14
 305 0046 DF90      		pop r13
 306 0048 CF90      		pop r12
 307               	.LVL20:
 308 004a 0895      		ret
 309               		.cfi_endproc
 310               	.LFE5:
 311               		.size	time_delay, .-time_delay
 312               		.section	.text.time_delay16,"ax",@progbits
 313               	.global	time_delay16
 314               		.type	time_delay16, @function
 315               	time_delay16:
 316               	.LFB6:
 187:/home/arhat109/Arduino/libraries/Arhat/arhat.c **** 
 188:/home/arhat109/Arduino/libraries/Arhat/arhat.c **** /**
 189:/home/arhat109/Arduino/libraries/Arhat/arhat.c ****  * for smaller parameter size: only 65535 milli seconds
 190:/home/arhat109/Arduino/libraries/Arhat/arhat.c ****  * 52 bytes.
 191:/home/arhat109/Arduino/libraries/Arhat/arhat.c ****  */
 192:/home/arhat109/Arduino/libraries/Arhat/arhat.c **** void time_delay16(uint16_t interval)
 193:/home/arhat109/Arduino/libraries/Arhat/arhat.c **** {
 317               		.loc 1 193 0
 318               		.cfi_startproc
 319               	.LVL21:
GAS LISTING /tmp/ccOr00ZN.s 			page 10


 320 0000 0F93      		push r16
 321               	.LCFI8:
 322               		.cfi_def_cfa_offset 4
 323               		.cfi_offset 16, -3
 324 0002 1F93      		push r17
 325               	.LCFI9:
 326               		.cfi_def_cfa_offset 5
 327               		.cfi_offset 17, -4
 328 0004 CF93      		push r28
 329               	.LCFI10:
 330               		.cfi_def_cfa_offset 6
 331               		.cfi_offset 28, -5
 332 0006 DF93      		push r29
 333               	.LCFI11:
 334               		.cfi_def_cfa_offset 7
 335               		.cfi_offset 29, -6
 336               	/* prologue: function */
 337               	/* frame size = 0 */
 338               	/* stack size = 4 */
 339               	.L__stack_usage = 4
 340 0008 EC01      		movw r28,r24
 194:/home/arhat109/Arduino/libraries/Arhat/arhat.c ****     uint16_t start = (uint16_t)micros();
 341               		.loc 1 194 0
 342 000a 0E94 0000 		call time_micros
 343               	.LVL22:
 344 000e 8B01      		movw r16,r22
 345               	.LVL23:
 346               	.L13:
 195:/home/arhat109/Arduino/libraries/Arhat/arhat.c **** 
 196:/home/arhat109/Arduino/libraries/Arhat/arhat.c ****     while (interval > 0) {
 347               		.loc 1 196 0 discriminator 1
 348 0010 2097      		sbiw r28,0
 349 0012 01F0      		breq .L16
 197:/home/arhat109/Arduino/libraries/Arhat/arhat.c ****       if (((uint16_t)micros() - start) >= 1000) {
 350               		.loc 1 197 0
 351 0014 0E94 0000 		call time_micros
 352               	.LVL24:
 353 0018 601B      		sub r22,r16
 354 001a 710B      		sbc r23,r17
 355 001c 683E      		cpi r22,-24
 356 001e 7340      		sbci r23,3
 357 0020 00F0      		brlo .L13
 198:/home/arhat109/Arduino/libraries/Arhat/arhat.c ****         interval--;
 358               		.loc 1 198 0
 359 0022 2197      		sbiw r28,1
 360               	.LVL25:
 199:/home/arhat109/Arduino/libraries/Arhat/arhat.c ****         start += 1000;
 361               		.loc 1 199 0
 362 0024 0851      		subi r16,24
 363 0026 1C4F      		sbci r17,-4
 364               	.LVL26:
 365 0028 00C0      		rjmp .L13
 366               	.L16:
 367               	/* epilogue start */
 200:/home/arhat109/Arduino/libraries/Arhat/arhat.c ****       }
 201:/home/arhat109/Arduino/libraries/Arhat/arhat.c ****     }
 202:/home/arhat109/Arduino/libraries/Arhat/arhat.c **** }
GAS LISTING /tmp/ccOr00ZN.s 			page 11


 368               		.loc 1 202 0
 369 002a DF91      		pop r29
 370 002c CF91      		pop r28
 371               	.LVL27:
 372 002e 1F91      		pop r17
 373 0030 0F91      		pop r16
 374               	.LVL28:
 375 0032 0895      		ret
 376               		.cfi_endproc
 377               	.LFE6:
 378               		.size	time_delay16, .-time_delay16
 379               		.section	.text.init,"ax",@progbits
 380               	.global	init
 381               		.type	init, @function
 382               	init:
 383               	.LFB7:
 203:/home/arhat109/Arduino/libraries/Arhat/arhat.c **** 
 204:/home/arhat109/Arduino/libraries/Arhat/arhat.c **** /**
 205:/home/arhat109/Arduino/libraries/Arhat/arhat.c ****  * (re)start timer for time functions
 206:/home/arhat109/Arduino/libraries/Arhat/arhat.c ****  * @see TIME_DEFAULT define section
 207:/home/arhat109/Arduino/libraries/Arhat/arhat.c ****  * 26 bytes
 208:/home/arhat109/Arduino/libraries/Arhat/arhat.c ****  */
 209:/home/arhat109/Arduino/libraries/Arhat/arhat.c **** void time_init()
 210:/home/arhat109/Arduino/libraries/Arhat/arhat.c **** {
 384               		.loc 1 210 0
 385               		.cfi_startproc
 386               	/* prologue: function */
 387               	/* frame size = 0 */
 388               	/* stack size = 0 */
 389               	.L__stack_usage = 0
 211:/home/arhat109/Arduino/libraries/Arhat/arhat.c ****     sei();
 390               		.loc 1 211 0
 391               	/* #APP */
 392               	 ;  211 "/home/arhat109/Arduino/libraries/Arhat/arhat.c" 1
 393 0000 7894      		sei
 394               	 ;  0 "" 2
 212:/home/arhat109/Arduino/libraries/Arhat/arhat.c ****     timerControl(TIME_DEFAULT, A) |= TIME_MODE;
 395               		.loc 1 212 0
 396               	/* #NOAPP */
 397 0002 84B5      		in r24,0x24
 398 0004 8360      		ori r24,lo8(3)
 399 0006 84BD      		out 0x24,r24
 213:/home/arhat109/Arduino/libraries/Arhat/arhat.c ****     timerControl(TIME_DEFAULT, B) |= prescalerMode(TIME_PRESCALLER);
 400               		.loc 1 213 0
 401 0008 85B5      		in r24,0x25
 402 000a 8360      		ori r24,lo8(3)
 403 000c 85BD      		out 0x25,r24
 214:/home/arhat109/Arduino/libraries/Arhat/arhat.c ****     timerIMask(TIME_DEFAULT, OVF, 1);
 404               		.loc 1 214 0
 405 000e EEE6      		ldi r30,lo8(110)
 406 0010 F0E0      		ldi r31,0
 407 0012 8081      		ld r24,Z
 408 0014 8160      		ori r24,lo8(1)
 409 0016 8083      		st Z,r24
 410 0018 0895      		ret
 411               		.cfi_endproc
 412               	.LFE7:
GAS LISTING /tmp/ccOr00ZN.s 			page 12


 413               		.size	init, .-init
 414               		.section	.text.adc_read,"ax",@progbits
 415               	.global	adc_read
 416               		.type	adc_read, @function
 417               	adc_read:
 418               	.LFB9:
 215:/home/arhat109/Arduino/libraries/Arhat/arhat.c **** }
 216:/home/arhat109/Arduino/libraries/Arhat/arhat.c **** 
 217:/home/arhat109/Arduino/libraries/Arhat/arhat.c **** /**
 218:/home/arhat109/Arduino/libraries/Arhat/arhat.c ****  * Timer interrupt by Overflow Flag up each (TIMER_TICK_MCS*TIMER_MAX_COUNT) microseconds.
 219:/home/arhat109/Arduino/libraries/Arhat/arhat.c ****  *
 220:/home/arhat109/Arduino/libraries/Arhat/arhat.c ****  * –ü–æ–ª—å–∑—É–µ–º—Å—è –ø–æ–±–∞–π—Ç–æ–≤–æ–π –∞—Ä–∏—Ñ–º–µ—Ç–∏–∫–æ–π: —Å—á–∏—Ç–∞–ª–∏ - –¥–æ–±–∞–≤–∏–
 221:/home/arhat109/Arduino/libraries/Arhat/arhat.c ****  * –≠–∫–æ–Ω–æ–º–∏–º —Ä–µ–≥–∏—Å—Ç—Ä—ã –∏ –∫–æ–º–∞–Ω–¥—ã:
 222:/home/arhat109/Arduino/libraries/Arhat/arhat.c ****  * "–°" verison   = 158 bytes;
 223:/home/arhat109/Arduino/libraries/Arhat/arhat.c ****  * "ASM" version = 102 bytes, 46/51/75 cycles: 2.875mcsec for timer0_hook=0 and 4.6875 mcsec for em
 224:/home/arhat109/Arduino/libraries/Arhat/arhat.c ****  *
 225:/home/arhat109/Arduino/libraries/Arhat/arhat.c ****  * ISR(ISRtimer(TIME_DEFAULT, TIME_ISR), ISR_NAKED)
 226:/home/arhat109/Arduino/libraries/Arhat/arhat.c ****  *
 227:/home/arhat109/Arduino/libraries/Arhat/arhat.c ****  * equal this:
 228:/home/arhat109/Arduino/libraries/Arhat/arhat.c ****  *
 229:/home/arhat109/Arduino/libraries/Arhat/arhat.c ****  * void __vector_ 23(void) __attribute__ ((signal, used, externally_visible)) __attribute__((naked)
 230:/home/arhat109/Arduino/libraries/Arhat/arhat.c ****  * void __vector_ 23(void)
 231:/home/arhat109/Arduino/libraries/Arhat/arhat.c ****  */
 232:/home/arhat109/Arduino/libraries/Arhat/arhat.c **** ISR(ISRtimer(TIME_DEFAULT, TIME_ISR), ISR_NAKED)
 233:/home/arhat109/Arduino/libraries/Arhat/arhat.c **** //ISR(ISRtimer(TIME_DEFAULT, TIME_ISR))
 234:/home/arhat109/Arduino/libraries/Arhat/arhat.c **** {
 235:/home/arhat109/Arduino/libraries/Arhat/arhat.c **** /* C version:
 236:/home/arhat109/Arduino/libraries/Arhat/arhat.c **** 
 237:/home/arhat109/Arduino/libraries/Arhat/arhat.c ****     timer0_overflow_count++;
 238:/home/arhat109/Arduino/libraries/Arhat/arhat.c **** 
 239:/home/arhat109/Arduino/libraries/Arhat/arhat.c ****     if( timer0_hook && !timer0_hook_run ){
 240:/home/arhat109/Arduino/libraries/Arhat/arhat.c ****         timer0_hook_run = 1;
 241:/home/arhat109/Arduino/libraries/Arhat/arhat.c ****         sei();
 242:/home/arhat109/Arduino/libraries/Arhat/arhat.c ****         timer0_hook();
 243:/home/arhat109/Arduino/libraries/Arhat/arhat.c ****         cli();
 244:/home/arhat109/Arduino/libraries/Arhat/arhat.c ****         timer0_hook_run = 0;
 245:/home/arhat109/Arduino/libraries/Arhat/arhat.c ****     }
 246:/home/arhat109/Arduino/libraries/Arhat/arhat.c **** }
 247:/home/arhat109/Arduino/libraries/Arhat/arhat.c **** */
 248:/home/arhat109/Arduino/libraries/Arhat/arhat.c ****     asm volatile(
 249:/home/arhat109/Arduino/libraries/Arhat/arhat.c ****         "    push r30               \n\t"
 250:/home/arhat109/Arduino/libraries/Arhat/arhat.c ****         "    push r31               \n\t"
 251:/home/arhat109/Arduino/libraries/Arhat/arhat.c ****         "    in r30,__SREG__        \n\t"
 252:/home/arhat109/Arduino/libraries/Arhat/arhat.c ****         "    push r30               \n\t"
 253:/home/arhat109/Arduino/libraries/Arhat/arhat.c **** 
 254:/home/arhat109/Arduino/libraries/Arhat/arhat.c ****         "    lds r30,timer0_overflow_count   \n\t"
 255:/home/arhat109/Arduino/libraries/Arhat/arhat.c ****         "    lds r31,timer0_overflow_count+1 \n\t"
 256:/home/arhat109/Arduino/libraries/Arhat/arhat.c ****         "    adiw r30,1                      \n\t"
 257:/home/arhat109/Arduino/libraries/Arhat/arhat.c ****         "    sts timer0_overflow_count,r30   \n\t"
 258:/home/arhat109/Arduino/libraries/Arhat/arhat.c ****         "    sts timer0_overflow_count+1,r31 \n\t"
 259:/home/arhat109/Arduino/libraries/Arhat/arhat.c ****         "    clr r31                         \n\t"
 260:/home/arhat109/Arduino/libraries/Arhat/arhat.c ****         "    lds r30,timer0_overflow_count+2 \n\t"
 261:/home/arhat109/Arduino/libraries/Arhat/arhat.c ****         "    adc r30,r31                     \n\t"
 262:/home/arhat109/Arduino/libraries/Arhat/arhat.c ****         "    sts timer0_overflow_count+2,r30 \n\t"
 263:/home/arhat109/Arduino/libraries/Arhat/arhat.c ****         "    lds r30,timer0_overflow_count+3 \n\t"
 264:/home/arhat109/Arduino/libraries/Arhat/arhat.c ****         "    adc r30,r31                     \n\t"
 265:/home/arhat109/Arduino/libraries/Arhat/arhat.c ****         "    sts timer0_overflow_count+3,r30 \n\t"
GAS LISTING /tmp/ccOr00ZN.s 			page 13


 266:/home/arhat109/Arduino/libraries/Arhat/arhat.c **** 
 267:/home/arhat109/Arduino/libraries/Arhat/arhat.c **** #if defined(ARHAT_MODE) && (ARHAT_MODE == 3)
 268:/home/arhat109/Arduino/libraries/Arhat/arhat.c **** /*
 269:/home/arhat109/Arduino/libraries/Arhat/arhat.c ****         "    lds r30,timer0_hook                 ; if( timer0_hook && !timer0_hook_run ){\n\t"
 270:/home/arhat109/Arduino/libraries/Arhat/arhat.c ****         "    lds r31,timer0_hook+1                                                       \n\t"
 271:/home/arhat109/Arduino/libraries/Arhat/arhat.c ****         "    or  r30,r31                         ; (LByte | HByte) == 0?                 \n\t"
 272:/home/arhat109/Arduino/libraries/Arhat/arhat.c ****         "    breq .L1                                                                    \n\t"
 273:/home/arhat109/Arduino/libraries/Arhat/arhat.c ****         "    lds r30,timer0_hook_run                                                     \n\t"
 274:/home/arhat109/Arduino/libraries/Arhat/arhat.c ****         "    tst r30                             ; r30 & r30 != 0?                       \n\t"
 275:/home/arhat109/Arduino/libraries/Arhat/arhat.c ****         "    brne .L1                                                                    \n\t"
 276:/home/arhat109/Arduino/libraries/Arhat/arhat.c ****         "    inc r30                             ; timer0_hook_run = 1; \n\t"
 277:/home/arhat109/Arduino/libraries/Arhat/arhat.c ****         "    sts timer0_hook_run,r30                                    \n\t"
 278:/home/arhat109/Arduino/libraries/Arhat/arhat.c ****         "    lds r30,timer0_hook                 ; timer0_hook();       \n\t"
 279:/home/arhat109/Arduino/libraries/Arhat/arhat.c ****         "    lds r31,timer0_hook+1                                      \n\t"
 280:/home/arhat109/Arduino/libraries/Arhat/arhat.c ****         "    sei   \n\t"
 281:/home/arhat109/Arduino/libraries/Arhat/arhat.c **** */
 282:/home/arhat109/Arduino/libraries/Arhat/arhat.c ****         ::
 283:/home/arhat109/Arduino/libraries/Arhat/arhat.c ****     );
 284:/home/arhat109/Arduino/libraries/Arhat/arhat.c **** 
 285:/home/arhat109/Arduino/libraries/Arhat/arhat.c ****     if( timer0_hook && !timer0_hook_run ){
 286:/home/arhat109/Arduino/libraries/Arhat/arhat.c ****         timer0_hook_run = 1;
 287:/home/arhat109/Arduino/libraries/Arhat/arhat.c ****         pushAllRegs();
 288:/home/arhat109/Arduino/libraries/Arhat/arhat.c ****         sei();
 289:/home/arhat109/Arduino/libraries/Arhat/arhat.c ****         timer0_hook();
 290:/home/arhat109/Arduino/libraries/Arhat/arhat.c ****         cli();
 291:/home/arhat109/Arduino/libraries/Arhat/arhat.c ****         timer0_hook_run = 0;
 292:/home/arhat109/Arduino/libraries/Arhat/arhat.c **** /*
 293:/home/arhat109/Arduino/libraries/Arhat/arhat.c ****     asm volatile(
 294:/home/arhat109/Arduino/libraries/Arhat/arhat.c ****         "    icall \n\t"
 295:/home/arhat109/Arduino/libraries/Arhat/arhat.c ****         ::
 296:/home/arhat109/Arduino/libraries/Arhat/arhat.c ****     );
 297:/home/arhat109/Arduino/libraries/Arhat/arhat.c **** */
 298:/home/arhat109/Arduino/libraries/Arhat/arhat.c ****         popAllRegs();
 299:/home/arhat109/Arduino/libraries/Arhat/arhat.c ****     }
 300:/home/arhat109/Arduino/libraries/Arhat/arhat.c ****     asm volatile(
 301:/home/arhat109/Arduino/libraries/Arhat/arhat.c **** /*
 302:/home/arhat109/Arduino/libraries/Arhat/arhat.c ****         "    cli   \n\t"
 303:/home/arhat109/Arduino/libraries/Arhat/arhat.c ****         "    clr r31                                                    \n\t"
 304:/home/arhat109/Arduino/libraries/Arhat/arhat.c ****         "    sts timer0_hook_run,r31             ; timer0_hook_run = 0; \n\t"
 305:/home/arhat109/Arduino/libraries/Arhat/arhat.c ****         ".L1:                  \n\t"
 306:/home/arhat109/Arduino/libraries/Arhat/arhat.c **** */
 307:/home/arhat109/Arduino/libraries/Arhat/arhat.c **** #endif // ARHAT_MODE == 3
 308:/home/arhat109/Arduino/libraries/Arhat/arhat.c ****         "    pop r30           \n\t"
 309:/home/arhat109/Arduino/libraries/Arhat/arhat.c ****         "    out __SREG__,r30  \n\t"
 310:/home/arhat109/Arduino/libraries/Arhat/arhat.c ****         "    pop r31           \n\t"
 311:/home/arhat109/Arduino/libraries/Arhat/arhat.c ****         "    pop r30           \n\t"
 312:/home/arhat109/Arduino/libraries/Arhat/arhat.c ****         "    reti              \n\t"
 313:/home/arhat109/Arduino/libraries/Arhat/arhat.c ****         ::
 314:/home/arhat109/Arduino/libraries/Arhat/arhat.c ****     );
 315:/home/arhat109/Arduino/libraries/Arhat/arhat.c **** 
 316:/home/arhat109/Arduino/libraries/Arhat/arhat.c **** }
 317:/home/arhat109/Arduino/libraries/Arhat/arhat.c **** 
 318:/home/arhat109/Arduino/libraries/Arhat/arhat.c **** // ======================== ADC ======================== //
 319:/home/arhat109/Arduino/libraries/Arhat/arhat.c **** 
 320:/home/arhat109/Arduino/libraries/Arhat/arhat.c **** /** Input multiplexer channels (@deprecated: not need more!) */
 321:/home/arhat109/Arduino/libraries/Arhat/arhat.c **** #define ADMUX_0		0	/* from Analog0 */
 322:/home/arhat109/Arduino/libraries/Arhat/arhat.c **** #define ADMUX_1		1	/* from Analog1 */
GAS LISTING /tmp/ccOr00ZN.s 			page 14


 323:/home/arhat109/Arduino/libraries/Arhat/arhat.c **** #define ADMUX_2		2	/* from Analog2 */
 324:/home/arhat109/Arduino/libraries/Arhat/arhat.c **** #define ADMUX_3		3	/* from Analog3 */
 325:/home/arhat109/Arduino/libraries/Arhat/arhat.c **** #define ADMUX_4		4	/* from Analog4 */
 326:/home/arhat109/Arduino/libraries/Arhat/arhat.c **** #define ADMUX_5		5	/* from Analog5 */
 327:/home/arhat109/Arduino/libraries/Arhat/arhat.c **** #define ADMUX_6		6	/* from Analog6 */
 328:/home/arhat109/Arduino/libraries/Arhat/arhat.c **** #define ADMUX_7		7	/* from Analog7 */
 329:/home/arhat109/Arduino/libraries/Arhat/arhat.c **** #define ADMUX_8		32	/* from Analog8 */
 330:/home/arhat109/Arduino/libraries/Arhat/arhat.c **** #define ADMUX_9		33	/* from Analog9 */
 331:/home/arhat109/Arduino/libraries/Arhat/arhat.c **** #define ADMUX_10	34	/* from Analog10 */
 332:/home/arhat109/Arduino/libraries/Arhat/arhat.c **** #define ADMUX_11	35	/* from Analog11 */
 333:/home/arhat109/Arduino/libraries/Arhat/arhat.c **** #define ADMUX_12	36	/* from Analog12 */
 334:/home/arhat109/Arduino/libraries/Arhat/arhat.c **** #define ADMUX_13	37	/* from Analog13 */
 335:/home/arhat109/Arduino/libraries/Arhat/arhat.c **** #define ADMUX_14	38	/* from Analog14 */
 336:/home/arhat109/Arduino/libraries/Arhat/arhat.c **** #define ADMUX_15	39	/* from Analog15 */
 337:/home/arhat109/Arduino/libraries/Arhat/arhat.c **** #define ADMUX_M10_a0a0		8
 338:/home/arhat109/Arduino/libraries/Arhat/arhat.c **** #define ADMUX_M10_a0a1		9
 339:/home/arhat109/Arduino/libraries/Arhat/arhat.c **** #define ADMUX_M200_a0a0		10
 340:/home/arhat109/Arduino/libraries/Arhat/arhat.c **** #define ADMUX_M200_a0a1		11
 341:/home/arhat109/Arduino/libraries/Arhat/arhat.c **** #define ADMUX_M10_a2a2		12
 342:/home/arhat109/Arduino/libraries/Arhat/arhat.c **** #define ADMUX_M10_a2a3		13
 343:/home/arhat109/Arduino/libraries/Arhat/arhat.c **** #define ADMUX_M200_a2a2		14
 344:/home/arhat109/Arduino/libraries/Arhat/arhat.c **** #define ADMUX_M200_a2a3		15
 345:/home/arhat109/Arduino/libraries/Arhat/arhat.c **** #define ADMUX_M10_a8a8		40
 346:/home/arhat109/Arduino/libraries/Arhat/arhat.c **** #define ADMUX_M10_a8a9		41
 347:/home/arhat109/Arduino/libraries/Arhat/arhat.c **** #define ADMUX_M200_a8a8		42
 348:/home/arhat109/Arduino/libraries/Arhat/arhat.c **** #define ADMUX_M200_a8a9		43
 349:/home/arhat109/Arduino/libraries/Arhat/arhat.c **** #define ADMUX_M10_a10a10	44
 350:/home/arhat109/Arduino/libraries/Arhat/arhat.c **** #define ADMUX_M10_a10a11	45
 351:/home/arhat109/Arduino/libraries/Arhat/arhat.c **** #define ADMUX_M200_a10a10	46
 352:/home/arhat109/Arduino/libraries/Arhat/arhat.c **** #define ADMUX_M200_a10a11	47
 353:/home/arhat109/Arduino/libraries/Arhat/arhat.c **** #define ADMUX_M1_a1a0		16
 354:/home/arhat109/Arduino/libraries/Arhat/arhat.c **** #define ADMUX_M1_a1a1		17
 355:/home/arhat109/Arduino/libraries/Arhat/arhat.c **** #define ADMUX_M1_a1a2		18
 356:/home/arhat109/Arduino/libraries/Arhat/arhat.c **** #define ADMUX_M1_a1a3		19
 357:/home/arhat109/Arduino/libraries/Arhat/arhat.c **** #define ADMUX_M1_a1a4		20
 358:/home/arhat109/Arduino/libraries/Arhat/arhat.c **** #define ADMUX_M1_a1a5		21
 359:/home/arhat109/Arduino/libraries/Arhat/arhat.c **** #define ADMUX_M1_a1a6		22
 360:/home/arhat109/Arduino/libraries/Arhat/arhat.c **** #define ADMUX_M1_a1a7		23
 361:/home/arhat109/Arduino/libraries/Arhat/arhat.c **** #define ADMUX_M1_a2a0		24
 362:/home/arhat109/Arduino/libraries/Arhat/arhat.c **** #define ADMUX_M1_a2a1		25
 363:/home/arhat109/Arduino/libraries/Arhat/arhat.c **** #define ADMUX_M1_a2a2		26
 364:/home/arhat109/Arduino/libraries/Arhat/arhat.c **** #define ADMUX_M1_a2a3		27
 365:/home/arhat109/Arduino/libraries/Arhat/arhat.c **** #define ADMUX_M1_a2a4		28
 366:/home/arhat109/Arduino/libraries/Arhat/arhat.c **** #define ADMUX_M1_a2a5		29
 367:/home/arhat109/Arduino/libraries/Arhat/arhat.c **** #define ADMUX_M1_a9a8		48
 368:/home/arhat109/Arduino/libraries/Arhat/arhat.c **** #define ADMUX_M1_a9a9		49
 369:/home/arhat109/Arduino/libraries/Arhat/arhat.c **** #define ADMUX_M1_a9a10		50
 370:/home/arhat109/Arduino/libraries/Arhat/arhat.c **** #define ADMUX_M1_a9a11		51
 371:/home/arhat109/Arduino/libraries/Arhat/arhat.c **** #define ADMUX_M1_a9a12		52
 372:/home/arhat109/Arduino/libraries/Arhat/arhat.c **** #define ADMUX_M1_a9a13		53
 373:/home/arhat109/Arduino/libraries/Arhat/arhat.c **** #define ADMUX_M1_a9a14		54
 374:/home/arhat109/Arduino/libraries/Arhat/arhat.c **** #define ADMUX_M1_a9a15		55
 375:/home/arhat109/Arduino/libraries/Arhat/arhat.c **** #define ADMUX_M1_a10a8		56
 376:/home/arhat109/Arduino/libraries/Arhat/arhat.c **** #define ADMUX_M1_a10a9		57
 377:/home/arhat109/Arduino/libraries/Arhat/arhat.c **** #define ADMUX_M1_a10a10		58
 378:/home/arhat109/Arduino/libraries/Arhat/arhat.c **** #define ADMUX_M1_a10a11		59
 379:/home/arhat109/Arduino/libraries/Arhat/arhat.c **** #define ADMUX_M1_a10a12		60
GAS LISTING /tmp/ccOr00ZN.s 			page 15


 380:/home/arhat109/Arduino/libraries/Arhat/arhat.c **** #define ADMUX_M1_a10a13		61
 381:/home/arhat109/Arduino/libraries/Arhat/arhat.c **** 
 382:/home/arhat109/Arduino/libraries/Arhat/arhat.c **** /**
 383:/home/arhat109/Arduino/libraries/Arhat/arhat.c ****  * AnalogRead
 384:/home/arhat109/Arduino/libraries/Arhat/arhat.c ****  * ==========
 385:/home/arhat109/Arduino/libraries/Arhat/arhat.c ****  * 1. ADC clock [50..200]kHz. for F_CPU = 16Mhz ADC prescaler = 160(opt.): ADPS2:0 = 111 = F_CPU/12
 386:/home/arhat109/Arduino/libraries/Arhat/arhat.c ****  * 2. set in default mode: 1 channel, ADLAR=right,src=AVCC
 387:/home/arhat109/Arduino/libraries/Arhat/arhat.c ****  *
 388:/home/arhat109/Arduino/libraries/Arhat/arhat.c ****  * 3. !!! before use it must be adcOn() with delay=108micros !!!
 389:/home/arhat109/Arduino/libraries/Arhat/arhat.c ****  */
 390:/home/arhat109/Arduino/libraries/Arhat/arhat.c **** uint16_t adc_read(uint8_t anPin)
 391:/home/arhat109/Arduino/libraries/Arhat/arhat.c **** {
 419               		.loc 1 391 0
 420               		.cfi_startproc
 421               	.LVL29:
 422               	/* prologue: function */
 423               	/* frame size = 0 */
 424               	/* stack size = 0 */
 425               	.L__stack_usage = 0
 392:/home/arhat109/Arduino/libraries/Arhat/arhat.c **** //  uint8_t    oreg, anh;
 393:/home/arhat109/Arduino/libraries/Arhat/arhat.c **** 
 394:/home/arhat109/Arduino/libraries/Arhat/arhat.c ****   admux1Channel(admuxSrc(AVCC), anPin, ADC_RIGHT);      // set registers: ADMUX, ADCSRB
 426               		.loc 1 394 0
 427 0000 982F      		mov r25,r24
 428 0002 9770      		andi r25,lo8(7)
 429 0004 292F      		mov r18,r25
 430 0006 2064      		ori r18,lo8(64)
 431 0008 2093 7C00 		sts 124,r18
 432 000c 2091 7B00 		lds r18,123
 433 0010 8870      		andi r24,lo8(8)
 434               	.LVL30:
 435 0012 282B      		or r18,r24
 436 0014 2093 7B00 		sts 123,r18
 437 0018 8823      		tst r24
 438 001a 01F0      		breq .L19
 439               		.loc 1 394 0 is_stmt 0 discriminator 1
 440 001c 8091 7D00 		lds r24,125
 441 0020 892B      		or r24,r25
 442 0022 8093 7D00 		sts 125,r24
 443 0026 00C0      		rjmp .L20
 444               	.L19:
 445               		.loc 1 394 0 discriminator 2
 446 0028 8091 7E00 		lds r24,126
 447 002c 892B      		or r24,r25
 448 002e 8093 7E00 		sts 126,r24
 449               	.L20:
 395:/home/arhat109/Arduino/libraries/Arhat/arhat.c ****   ADCSRA |= _BV(ADSC);                                  // start analog read
 450               		.loc 1 395 0 is_stmt 1
 451 0032 8091 7A00 		lds r24,122
 452 0036 8064      		ori r24,lo8(64)
 453 0038 8093 7A00 		sts 122,r24
 454               	.L22:
 396:/home/arhat109/Arduino/libraries/Arhat/arhat.c ****   while (ADCSRA & (1 << ADSC));                         // wait as ADC is done
 455               		.loc 1 396 0 discriminator 1
 456 003c 8091 7A00 		lds r24,122
 457 0040 86FD      		sbrc r24,6
 458 0042 00C0      		rjmp .L22
GAS LISTING /tmp/ccOr00ZN.s 			page 16


 397:/home/arhat109/Arduino/libraries/Arhat/arhat.c **** 
 398:/home/arhat109/Arduino/libraries/Arhat/arhat.c **** //  oreg = SREG;
 399:/home/arhat109/Arduino/libraries/Arhat/arhat.c **** //  cli();
 400:/home/arhat109/Arduino/libraries/Arhat/arhat.c **** //    anPin = ADCL;
 401:/home/arhat109/Arduino/libraries/Arhat/arhat.c **** //    anh = ADCH;
 402:/home/arhat109/Arduino/libraries/Arhat/arhat.c **** //  SREG = oreg;
 403:/home/arhat109/Arduino/libraries/Arhat/arhat.c **** //  return (ADCH<<8) + ADCL;
 404:/home/arhat109/Arduino/libraries/Arhat/arhat.c ****   asm volatile (
 459               		.loc 1 404 0
 460               	/* #APP */
 461               	 ;  404 "/home/arhat109/Arduino/libraries/Arhat/arhat.c" 1
 462 0044 0FB6      		in  __tmp_reg__, __SREG__
 463 0046 F894      		cli
 464 0048 8091 7800 		lds r24,120    ; retL = ADCL
 465 004c 9091 7900 		lds r25,121    ; retH = ADCH
 466 0050 0FBE      		out __SREG__,__tmp_reg__
 467               		
 468               	 ;  0 "" 2
 405:/home/arhat109/Arduino/libraries/Arhat/arhat.c ****     "in  __tmp_reg__, __SREG__\n\t"
 406:/home/arhat109/Arduino/libraries/Arhat/arhat.c ****     "cli\n\t"
 407:/home/arhat109/Arduino/libraries/Arhat/arhat.c ****     "lds r24,120    ; retL = ADCL\n\t"
 408:/home/arhat109/Arduino/libraries/Arhat/arhat.c ****     "lds r25,121    ; retH = ADCH\n\t"
 409:/home/arhat109/Arduino/libraries/Arhat/arhat.c ****     "out __SREG__,__tmp_reg__\n\t"
 410:/home/arhat109/Arduino/libraries/Arhat/arhat.c ****   ::);
 411:/home/arhat109/Arduino/libraries/Arhat/arhat.c **** }
 469               		.loc 1 411 0
 470               	/* #NOAPP */
 471 0052 0895      		ret
 472               		.cfi_endproc
 473               	.LFE9:
 474               		.size	adc_read, .-adc_read
 475               		.section	.text.EEPROM_read,"ax",@progbits
 476               	.global	EEPROM_read
 477               		.type	EEPROM_read, @function
 478               	EEPROM_read:
 479               	.LFB10:
 412:/home/arhat109/Arduino/libraries/Arhat/arhat.c **** 
 413:/home/arhat109/Arduino/libraries/Arhat/arhat.c **** // ======================== EEPROM ======================== //
 414:/home/arhat109/Arduino/libraries/Arhat/arhat.c **** // Thanks DeGlucker from cyber-place.ru                     //
 415:/home/arhat109/Arduino/libraries/Arhat/arhat.c **** // ======================================================== //
 416:/home/arhat109/Arduino/libraries/Arhat/arhat.c **** unsigned char EEPROM_read(unsigned int uiAddress)
 417:/home/arhat109/Arduino/libraries/Arhat/arhat.c **** {
 480               		.loc 1 417 0
 481               		.cfi_startproc
 482               	/* prologue: function */
 483               	/* frame size = 0 */
 484               	/* stack size = 0 */
 485               	.L__stack_usage = 0
 486               	.LVL31:
 487               	.L25:
 418:/home/arhat109/Arduino/libraries/Arhat/arhat.c ****   while(EECR & (1<<EEPE));
 488               		.loc 1 418 0 discriminator 1
 489 0000 F999      		sbic 0x1f,1
 490 0002 00C0      		rjmp .L25
 419:/home/arhat109/Arduino/libraries/Arhat/arhat.c ****   EEARL = uiAddress & 0xFF;
 491               		.loc 1 419 0
 492 0004 81BD      		out 0x21,r24
GAS LISTING /tmp/ccOr00ZN.s 			page 17


 420:/home/arhat109/Arduino/libraries/Arhat/arhat.c ****   EEARH = (uiAddress>>8) & 0xFF;
 493               		.loc 1 420 0
 494 0006 92BD      		out 0x22,r25
 421:/home/arhat109/Arduino/libraries/Arhat/arhat.c ****   EECR |= (1<<EERE);
 495               		.loc 1 421 0
 496 0008 F89A      		sbi 0x1f,0
 422:/home/arhat109/Arduino/libraries/Arhat/arhat.c ****   return EEDR;
 497               		.loc 1 422 0
 498 000a 80B5      		in r24,0x20
 499               	.LVL32:
 423:/home/arhat109/Arduino/libraries/Arhat/arhat.c **** }
 500               		.loc 1 423 0
 501 000c 0895      		ret
 502               		.cfi_endproc
 503               	.LFE10:
 504               		.size	EEPROM_read, .-EEPROM_read
 505               		.section	.text.EEPROM_write,"ax",@progbits
 506               	.global	EEPROM_write
 507               		.type	EEPROM_write, @function
 508               	EEPROM_write:
 509               	.LFB11:
 424:/home/arhat109/Arduino/libraries/Arhat/arhat.c **** 
 425:/home/arhat109/Arduino/libraries/Arhat/arhat.c **** void EEPROM_write(unsigned int uiAddress, unsigned char ucData)
 426:/home/arhat109/Arduino/libraries/Arhat/arhat.c **** {
 510               		.loc 1 426 0
 511               		.cfi_startproc
 512               	/* prologue: function */
 513               	/* frame size = 0 */
 514               	/* stack size = 0 */
 515               	.L__stack_usage = 0
 516               	.LVL33:
 517               	.L28:
 427:/home/arhat109/Arduino/libraries/Arhat/arhat.c ****   while(EECR & (1<<EEPE));
 518               		.loc 1 427 0 discriminator 1
 519 0000 F999      		sbic 0x1f,1
 520 0002 00C0      		rjmp .L28
 428:/home/arhat109/Arduino/libraries/Arhat/arhat.c ****   EEARL = uiAddress & 0xFF;
 521               		.loc 1 428 0
 522 0004 81BD      		out 0x21,r24
 429:/home/arhat109/Arduino/libraries/Arhat/arhat.c ****   EEARH = (uiAddress>>8) & 0xFF;
 523               		.loc 1 429 0
 524 0006 92BD      		out 0x22,r25
 430:/home/arhat109/Arduino/libraries/Arhat/arhat.c ****   EEDR = (ucData);
 525               		.loc 1 430 0
 526 0008 60BD      		out 0x20,r22
 431:/home/arhat109/Arduino/libraries/Arhat/arhat.c ****   uint8_t oreg = SREG;
 527               		.loc 1 431 0
 528 000a 8FB7      		in r24,__SREG__
 529               	.LVL34:
 432:/home/arhat109/Arduino/libraries/Arhat/arhat.c ****   cli();
 530               		.loc 1 432 0
 531               	/* #APP */
 532               	 ;  432 "/home/arhat109/Arduino/libraries/Arhat/arhat.c" 1
 533 000c F894      		cli
 534               	 ;  0 "" 2
 433:/home/arhat109/Arduino/libraries/Arhat/arhat.c ****   EECR |= (1<<EEMPE);
 535               		.loc 1 433 0
GAS LISTING /tmp/ccOr00ZN.s 			page 18


 536               	/* #NOAPP */
 537 000e FA9A      		sbi 0x1f,2
 434:/home/arhat109/Arduino/libraries/Arhat/arhat.c ****   EECR |= (1<<EEPE);
 538               		.loc 1 434 0
 539 0010 F99A      		sbi 0x1f,1
 435:/home/arhat109/Arduino/libraries/Arhat/arhat.c ****   SREG = oreg;
 540               		.loc 1 435 0
 541 0012 8FBF      		out __SREG__,r24
 542 0014 0895      		ret
 543               		.cfi_endproc
 544               	.LFE11:
 545               		.size	EEPROM_write, .-EEPROM_write
 546               		.section	.text.pushAllRegs,"ax",@progbits
 547               	.global	pushAllRegs
 548               		.type	pushAllRegs, @function
 549               	pushAllRegs:
 550               	.LFB12:
 436:/home/arhat109/Arduino/libraries/Arhat/arhat.c **** }
 437:/home/arhat109/Arduino/libraries/Arhat/arhat.c **** 
 438:/home/arhat109/Arduino/libraries/Arhat/arhat.c **** // ======================== RTOS simple ======================== //
 439:/home/arhat109/Arduino/libraries/Arhat/arhat.c **** // Small functions for future RTOS: save/load context            //
 440:/home/arhat109/Arduino/libraries/Arhat/arhat.c **** // ============================================================= //
 441:/home/arhat109/Arduino/libraries/Arhat/arhat.c **** 
 442:/home/arhat109/Arduino/libraries/Arhat/arhat.c **** /**
 443:/home/arhat109/Arduino/libraries/Arhat/arhat.c ****  * Save all register file and SREG on stack and right return to caller
 444:/home/arhat109/Arduino/libraries/Arhat/arhat.c ****  * –°–æ—Ö—Ä–∞–Ω–µ–Ω–∏–µ –ø–æ–ª–Ω–æ–≥–æ –∫–æ–Ω—Ç–µ–∫—Å—Ç–∞ –Ω–∞ —Å—Ç–µ–∫–µ –∏ –∫–æ—Ä—Ä–µ–∫—Ç–Ω—ã–π –
 445:/home/arhat109/Arduino/libraries/Arhat/arhat.c ****  */
 446:/home/arhat109/Arduino/libraries/Arhat/arhat.c **** void pushAllRegs()
 447:/home/arhat109/Arduino/libraries/Arhat/arhat.c **** {
 551               		.loc 1 447 0
 552               		.cfi_startproc
 553               	/* prologue: function */
 554               	/* frame size = 0 */
 555               	/* stack size = 0 */
 556               	.L__stack_usage = 0
 448:/home/arhat109/Arduino/libraries/Arhat/arhat.c ****   asm volatile(
 557               		.loc 1 448 0
 558               	/* #APP */
 559               	 ;  448 "/home/arhat109/Arduino/libraries/Arhat/arhat.c" 1
 560 0000 FF93      		    push r31               
 561 0002 EF93      		    push r30               
 562 0004 FEB7      		    in   r31,__SP_H__      
 563 0006 EDB7      		    in   r30,__SP_L__      
 564 0008 0F92      		    push r0                
 565 000a 0FB6      		    in   r0,__SREG__       
 566 000c 0F92      		    push r0                
 567 000e 1F92      		    push r1                
 568 0010 2F92      		    push r2                
 569 0012 3F92      		    push r3                
 570 0014 4F92      		    push r4                
 571 0016 5F92      		    push r5                
 572 0018 6F92      		    push r6                
 573 001a 7F92      		    push r7                
 574 001c 8F92      		    push r8                
 575 001e 9F92      		    push r9                
 576 0020 AF92      		    push r10               
 577 0022 BF92      		    push r11               
GAS LISTING /tmp/ccOr00ZN.s 			page 19


 578 0024 CF92      		    push r12               
 579 0026 DF92      		    push r13               
 580 0028 EF92      		    push r14               
 581 002a FF92      		    push r15               
 582 002c 0F93      		    push r16               
 583 002e 1F93      		    push r17               
 584 0030 2F93      		    push r18               
 585 0032 3F93      		    push r19               
 586 0034 4F93      		    push r20               
 587 0036 5F93      		    push r21               
 588 0038 6F93      		    push r22               
 589 003a 7F93      		    push r23               
 590 003c 8F93      		    push r24               
 591 003e 9F93      		    push r25               
 592 0040 AF93      		    push r26               
 593 0042 BF93      		    push r27               
 594 0044 CF93      		    push r28               
 595 0046 DF93      		    push r29               
 596 0048 0380      		    ldd  r0,Z+3            
 597 004a 1480      		    ldd  r1,Z+4            
 598 004c 1F92      		    push r1                
 599 004e 0F92      		    push r0                
 600 0050 1124      		    clr  r1                
 601               		
 602               	 ;  0 "" 2
 603               	/* #NOAPP */
 604 0052 0895      		ret
 605               		.cfi_endproc
 606               	.LFE12:
 607               		.size	pushAllRegs, .-pushAllRegs
 608               		.section	.text.popAllRegs,"ax",@progbits
 609               	.global	popAllRegs
 610               		.type	popAllRegs, @function
 611               	popAllRegs:
 612               	.LFB13:
 449:/home/arhat109/Arduino/libraries/Arhat/arhat.c ****     "    push r31               \n\t"
 450:/home/arhat109/Arduino/libraries/Arhat/arhat.c ****     "    push r30               \n\t"
 451:/home/arhat109/Arduino/libraries/Arhat/arhat.c ****     "    in   r31,__SP_H__      \n\t"
 452:/home/arhat109/Arduino/libraries/Arhat/arhat.c ****     "    in   r30,__SP_L__      \n\t"
 453:/home/arhat109/Arduino/libraries/Arhat/arhat.c ****     "    push r0                \n\t"
 454:/home/arhat109/Arduino/libraries/Arhat/arhat.c ****     "    in   r0,__SREG__       \n\t"
 455:/home/arhat109/Arduino/libraries/Arhat/arhat.c ****     "    push r0                \n\t"
 456:/home/arhat109/Arduino/libraries/Arhat/arhat.c ****     "    push r1                \n\t"
 457:/home/arhat109/Arduino/libraries/Arhat/arhat.c ****     "    push r2                \n\t"
 458:/home/arhat109/Arduino/libraries/Arhat/arhat.c ****     "    push r3                \n\t"
 459:/home/arhat109/Arduino/libraries/Arhat/arhat.c ****     "    push r4                \n\t"
 460:/home/arhat109/Arduino/libraries/Arhat/arhat.c ****     "    push r5                \n\t"
 461:/home/arhat109/Arduino/libraries/Arhat/arhat.c ****     "    push r6                \n\t"
 462:/home/arhat109/Arduino/libraries/Arhat/arhat.c ****     "    push r7                \n\t"
 463:/home/arhat109/Arduino/libraries/Arhat/arhat.c ****     "    push r8                \n\t"
 464:/home/arhat109/Arduino/libraries/Arhat/arhat.c ****     "    push r9                \n\t"
 465:/home/arhat109/Arduino/libraries/Arhat/arhat.c ****     "    push r10               \n\t"
 466:/home/arhat109/Arduino/libraries/Arhat/arhat.c ****     "    push r11               \n\t"
 467:/home/arhat109/Arduino/libraries/Arhat/arhat.c ****     "    push r12               \n\t"
 468:/home/arhat109/Arduino/libraries/Arhat/arhat.c ****     "    push r13               \n\t"
 469:/home/arhat109/Arduino/libraries/Arhat/arhat.c ****     "    push r14               \n\t"
 470:/home/arhat109/Arduino/libraries/Arhat/arhat.c ****     "    push r15               \n\t"
GAS LISTING /tmp/ccOr00ZN.s 			page 20


 471:/home/arhat109/Arduino/libraries/Arhat/arhat.c ****     "    push r16               \n\t"
 472:/home/arhat109/Arduino/libraries/Arhat/arhat.c ****     "    push r17               \n\t"
 473:/home/arhat109/Arduino/libraries/Arhat/arhat.c ****     "    push r18               \n\t"
 474:/home/arhat109/Arduino/libraries/Arhat/arhat.c ****     "    push r19               \n\t"
 475:/home/arhat109/Arduino/libraries/Arhat/arhat.c ****     "    push r20               \n\t"
 476:/home/arhat109/Arduino/libraries/Arhat/arhat.c ****     "    push r21               \n\t"
 477:/home/arhat109/Arduino/libraries/Arhat/arhat.c ****     "    push r22               \n\t"
 478:/home/arhat109/Arduino/libraries/Arhat/arhat.c ****     "    push r23               \n\t"
 479:/home/arhat109/Arduino/libraries/Arhat/arhat.c ****     "    push r24               \n\t"
 480:/home/arhat109/Arduino/libraries/Arhat/arhat.c ****     "    push r25               \n\t"
 481:/home/arhat109/Arduino/libraries/Arhat/arhat.c ****     "    push r26               \n\t"
 482:/home/arhat109/Arduino/libraries/Arhat/arhat.c ****     "    push r27               \n\t"
 483:/home/arhat109/Arduino/libraries/Arhat/arhat.c ****     "    push r28               \n\t"
 484:/home/arhat109/Arduino/libraries/Arhat/arhat.c ****     "    push r29               \n\t"
 485:/home/arhat109/Arduino/libraries/Arhat/arhat.c ****     "    ldd  r0,Z+3            \n\t"
 486:/home/arhat109/Arduino/libraries/Arhat/arhat.c ****     "    ldd  r1,Z+4            \n\t"
 487:/home/arhat109/Arduino/libraries/Arhat/arhat.c ****     "    push r1                \n\t"
 488:/home/arhat109/Arduino/libraries/Arhat/arhat.c ****     "    push r0                \n\t"
 489:/home/arhat109/Arduino/libraries/Arhat/arhat.c ****     "    clr  r1                \n\t"
 490:/home/arhat109/Arduino/libraries/Arhat/arhat.c ****     ::
 491:/home/arhat109/Arduino/libraries/Arhat/arhat.c ****     );
 492:/home/arhat109/Arduino/libraries/Arhat/arhat.c **** }
 493:/home/arhat109/Arduino/libraries/Arhat/arhat.c **** 
 494:/home/arhat109/Arduino/libraries/Arhat/arhat.c **** /**
 495:/home/arhat109/Arduino/libraries/Arhat/arhat.c ****  * Load all register file and SREG from stack and right return to caller
 496:/home/arhat109/Arduino/libraries/Arhat/arhat.c ****  * –û–±—Ä–∞—Ç–Ω–∞—è –∑–∞–¥–∞—á–∞: –≤–æ—Å—Å—Ç–∞–Ω–æ–≤–ª–µ–Ω–∏–µ –∫–æ–Ω—Ç–µ–∫—Å—Ç–∞ —Ä–µ–≥–∏—Å—Ç—Ä–æ–
 497:/home/arhat109/Arduino/libraries/Arhat/arhat.c ****  * —Å –ø–æ–¥–º–µ–Ω–æ–π —Å—Ç–∞—Ä–æ–π —Ç–æ—á–∫–∏ –≤–æ–∑—Ä–∞—Ç–∞ (@see pushAllRegs()) –Ω–∞ –∫–æ—Ä—Ä–µ–
 498:/home/arhat109/Arduino/libraries/Arhat/arhat.c ****  */
 499:/home/arhat109/Arduino/libraries/Arhat/arhat.c **** void popAllRegs()
 500:/home/arhat109/Arduino/libraries/Arhat/arhat.c **** {
 613               		.loc 1 500 0
 614               		.cfi_startproc
 615               	/* prologue: function */
 616               	/* frame size = 0 */
 617               	/* stack size = 0 */
 618               	.L__stack_usage = 0
 501:/home/arhat109/Arduino/libraries/Arhat/arhat.c **** asm volatile(
 619               		.loc 1 501 0
 620               	/* #APP */
 621               	 ;  501 "/home/arhat109/Arduino/libraries/Arhat/arhat.c" 1
 622 0000 1F90      		    pop r1           
 623 0002 0F90      		    pop r0           
 624 0004 DF91      		    pop r29          
 625 0006 CF91      		    pop r28          
 626 0008 BF91      		    pop r27          
 627 000a AF91      		    pop r26          
 628 000c 9F91      		    pop r25          
 629 000e 8F91      		    pop r24          
 630 0010 7F91      		    pop r23          
 631 0012 6F91      		    pop r22          
 632 0014 5F91      		    pop r21          
 633 0016 4F91      		    pop r20          
 634 0018 3F91      		    pop r19          
 635 001a 2F91      		    pop r18          
 636 001c 1F91      		    pop r17          
 637 001e 0F91      		    pop r16          
 638 0020 FF90      		    pop r15          
GAS LISTING /tmp/ccOr00ZN.s 			page 21


 639 0022 EF90      		    pop r14          
 640 0024 DF90      		    pop r13          
 641 0026 CF90      		    pop r12          
 642 0028 BF90      		    pop r11          
 643 002a AF90      		    pop r10          
 644 002c 9F90      		    pop r9           
 645 002e 8F90      		    pop r8           
 646 0030 7F90      		    pop r7           
 647 0032 6F90      		    pop r6           
 648 0034 5F90      		    pop r5           
 649 0036 4F90      		    pop r4           
 650 0038 3F90      		    pop r3           
 651 003a 2F90      		    pop r2           
 652 003c FEB7      		    in  r31,__SP_H__ 
 653 003e EDB7      		    in  r30,__SP_L__ 
 654 0040 0782      		    std Z+7,r0       
 655 0042 1682      		    std Z+6,r1       
 656 0044 1F90      		    pop r1           
 657 0046 0F90      		    pop r0           
 658 0048 0FBE      		    out __SREG__,r0  
 659 004a 0F90      		    pop r0           
 660 004c EF91      		    pop r30          
 661 004e FF91      		    pop r31          
 662               		
 663               	 ;  0 "" 2
 664               	/* #NOAPP */
 665 0050 0895      		ret
 666               		.cfi_endproc
 667               	.LFE13:
 668               		.size	popAllRegs, .-popAllRegs
 669               		.section	.text.__vector_23,"ax",@progbits
 670               	.global	__vector_23
 671               		.type	__vector_23, @function
 672               	__vector_23:
 673               	.LFB8:
 234:/home/arhat109/Arduino/libraries/Arhat/arhat.c **** /* C version:
 674               		.loc 1 234 0
 675               		.cfi_startproc
 676               	/* prologue: naked */
 677               	/* frame size = 0 */
 678               	/* stack size = 0 */
 679               	.L__stack_usage = 0
 248:/home/arhat109/Arduino/libraries/Arhat/arhat.c ****         "    push r30               \n\t"
 680               		.loc 1 248 0
 681               	/* #APP */
 682               	 ;  248 "/home/arhat109/Arduino/libraries/Arhat/arhat.c" 1
 683 0000 EF93      		    push r30               
 684 0002 FF93      		    push r31               
 685 0004 EFB7      		    in r30,__SREG__        
 686 0006 EF93      		    push r30               
 687 0008 E091 0000 		    lds r30,timer0_overflow_count   
 688 000c F091 0000 		    lds r31,timer0_overflow_count+1 
 689 0010 3196      		    adiw r30,1                      
 690 0012 E093 0000 		    sts timer0_overflow_count,r30   
 691 0016 F093 0000 		    sts timer0_overflow_count+1,r31 
 692 001a FF27      		    clr r31                         
 693 001c E091 0000 		    lds r30,timer0_overflow_count+2 
GAS LISTING /tmp/ccOr00ZN.s 			page 22


 694 0020 EF1F      		    adc r30,r31                     
 695 0022 E093 0000 		    sts timer0_overflow_count+2,r30 
 696 0026 E091 0000 		    lds r30,timer0_overflow_count+3 
 697 002a EF1F      		    adc r30,r31                     
 698 002c E093 0000 		    sts timer0_overflow_count+3,r30 
 699               		
 700               	 ;  0 "" 2
 285:/home/arhat109/Arduino/libraries/Arhat/arhat.c ****         timer0_hook_run = 1;
 701               		.loc 1 285 0
 702               	/* #NOAPP */
 703 0030 8091 0000 		lds r24,timer0_hook
 704 0034 9091 0000 		lds r25,timer0_hook+1
 705 0038 0097      		sbiw r24,0
 706 003a 01F0      		breq .L32
 285:/home/arhat109/Arduino/libraries/Arhat/arhat.c ****         timer0_hook_run = 1;
 707               		.loc 1 285 0 is_stmt 0 discriminator 1
 708 003c 8091 0000 		lds r24,timer0_hook_run
 709 0040 8111      		cpse r24,__zero_reg__
 710 0042 00C0      		rjmp .L32
 711               	.LBB2:
 286:/home/arhat109/Arduino/libraries/Arhat/arhat.c ****         pushAllRegs();
 712               		.loc 1 286 0 is_stmt 1
 713 0044 81E0      		ldi r24,lo8(1)
 714 0046 8093 0000 		sts timer0_hook_run,r24
 287:/home/arhat109/Arduino/libraries/Arhat/arhat.c ****         sei();
 715               		.loc 1 287 0
 716 004a 0E94 0000 		call pushAllRegs
 717               	.LVL35:
 288:/home/arhat109/Arduino/libraries/Arhat/arhat.c ****         timer0_hook();
 718               		.loc 1 288 0
 719               	/* #APP */
 720               	 ;  288 "/home/arhat109/Arduino/libraries/Arhat/arhat.c" 1
 721 004e 7894      		sei
 722               	 ;  0 "" 2
 289:/home/arhat109/Arduino/libraries/Arhat/arhat.c ****         cli();
 723               		.loc 1 289 0
 724               	/* #NOAPP */
 725 0050 E091 0000 		lds r30,timer0_hook
 726 0054 F091 0000 		lds r31,timer0_hook+1
 727 0058 1995      		eicall
 728               	.LVL36:
 290:/home/arhat109/Arduino/libraries/Arhat/arhat.c ****         timer0_hook_run = 0;
 729               		.loc 1 290 0
 730               	/* #APP */
 731               	 ;  290 "/home/arhat109/Arduino/libraries/Arhat/arhat.c" 1
 732 005a F894      		cli
 733               	 ;  0 "" 2
 291:/home/arhat109/Arduino/libraries/Arhat/arhat.c **** /*
 734               		.loc 1 291 0
 735               	/* #NOAPP */
 736 005c 1092 0000 		sts timer0_hook_run,__zero_reg__
 298:/home/arhat109/Arduino/libraries/Arhat/arhat.c ****     }
 737               		.loc 1 298 0
 738 0060 0E94 0000 		call popAllRegs
 739               	.LVL37:
 740               	.L32:
 741               	.LBE2:
GAS LISTING /tmp/ccOr00ZN.s 			page 23


 300:/home/arhat109/Arduino/libraries/Arhat/arhat.c **** /*
 742               		.loc 1 300 0
 743               	/* #APP */
 744               	 ;  300 "/home/arhat109/Arduino/libraries/Arhat/arhat.c" 1
 745 0064 EF91      		    pop r30           
 746 0066 EFBF      		    out __SREG__,r30  
 747 0068 FF91      		    pop r31           
 748 006a EF91      		    pop r30           
 749 006c 1895      		    reti              
 750               		
 751               	 ;  0 "" 2
 752               	/* epilogue start */
 316:/home/arhat109/Arduino/libraries/Arhat/arhat.c **** 
 753               		.loc 1 316 0
 754               	/* #NOAPP */
 755               		.cfi_endproc
 756               	.LFE8:
 757               		.size	__vector_23, .-__vector_23
 758               		.section	.text.pcint_end,"ax",@progbits
 759               	.global	pcint_end
 760               		.type	pcint_end, @function
 761               	pcint_end:
 762               	.LFB14:
 502:/home/arhat109/Arduino/libraries/Arhat/arhat.c ****     "    pop r1           \n\t"
 503:/home/arhat109/Arduino/libraries/Arhat/arhat.c ****     "    pop r0           \n\t"
 504:/home/arhat109/Arduino/libraries/Arhat/arhat.c ****     "    pop r29          \n\t"
 505:/home/arhat109/Arduino/libraries/Arhat/arhat.c ****     "    pop r28          \n\t"
 506:/home/arhat109/Arduino/libraries/Arhat/arhat.c ****     "    pop r27          \n\t"
 507:/home/arhat109/Arduino/libraries/Arhat/arhat.c ****     "    pop r26          \n\t"
 508:/home/arhat109/Arduino/libraries/Arhat/arhat.c ****     "    pop r25          \n\t"
 509:/home/arhat109/Arduino/libraries/Arhat/arhat.c ****     "    pop r24          \n\t"
 510:/home/arhat109/Arduino/libraries/Arhat/arhat.c ****     "    pop r23          \n\t"
 511:/home/arhat109/Arduino/libraries/Arhat/arhat.c ****     "    pop r22          \n\t"
 512:/home/arhat109/Arduino/libraries/Arhat/arhat.c ****     "    pop r21          \n\t"
 513:/home/arhat109/Arduino/libraries/Arhat/arhat.c ****     "    pop r20          \n\t"
 514:/home/arhat109/Arduino/libraries/Arhat/arhat.c ****     "    pop r19          \n\t"
 515:/home/arhat109/Arduino/libraries/Arhat/arhat.c ****     "    pop r18          \n\t"
 516:/home/arhat109/Arduino/libraries/Arhat/arhat.c ****     "    pop r17          \n\t"
 517:/home/arhat109/Arduino/libraries/Arhat/arhat.c ****     "    pop r16          \n\t"
 518:/home/arhat109/Arduino/libraries/Arhat/arhat.c ****     "    pop r15          \n\t"
 519:/home/arhat109/Arduino/libraries/Arhat/arhat.c ****     "    pop r14          \n\t"
 520:/home/arhat109/Arduino/libraries/Arhat/arhat.c ****     "    pop r13          \n\t"
 521:/home/arhat109/Arduino/libraries/Arhat/arhat.c ****     "    pop r12          \n\t"
 522:/home/arhat109/Arduino/libraries/Arhat/arhat.c ****     "    pop r11          \n\t"
 523:/home/arhat109/Arduino/libraries/Arhat/arhat.c ****     "    pop r10          \n\t"
 524:/home/arhat109/Arduino/libraries/Arhat/arhat.c ****     "    pop r9           \n\t"
 525:/home/arhat109/Arduino/libraries/Arhat/arhat.c ****     "    pop r8           \n\t"
 526:/home/arhat109/Arduino/libraries/Arhat/arhat.c ****     "    pop r7           \n\t"
 527:/home/arhat109/Arduino/libraries/Arhat/arhat.c ****     "    pop r6           \n\t"
 528:/home/arhat109/Arduino/libraries/Arhat/arhat.c ****     "    pop r5           \n\t"
 529:/home/arhat109/Arduino/libraries/Arhat/arhat.c ****     "    pop r4           \n\t"
 530:/home/arhat109/Arduino/libraries/Arhat/arhat.c ****     "    pop r3           \n\t"
 531:/home/arhat109/Arduino/libraries/Arhat/arhat.c ****     "    pop r2           \n\t"
 532:/home/arhat109/Arduino/libraries/Arhat/arhat.c ****     "    in  r31,__SP_H__ \n\t"
 533:/home/arhat109/Arduino/libraries/Arhat/arhat.c ****     "    in  r30,__SP_L__ \n\t"
 534:/home/arhat109/Arduino/libraries/Arhat/arhat.c ****     "    std Z+7,r0       \n\t"
 535:/home/arhat109/Arduino/libraries/Arhat/arhat.c ****     "    std Z+6,r1       \n\t"
GAS LISTING /tmp/ccOr00ZN.s 			page 24


 536:/home/arhat109/Arduino/libraries/Arhat/arhat.c ****     "    pop r1           \n\t"
 537:/home/arhat109/Arduino/libraries/Arhat/arhat.c ****     "    pop r0           \n\t"
 538:/home/arhat109/Arduino/libraries/Arhat/arhat.c ****     "    out __SREG__,r0  \n\t"
 539:/home/arhat109/Arduino/libraries/Arhat/arhat.c ****     "    pop r0           \n\t"
 540:/home/arhat109/Arduino/libraries/Arhat/arhat.c ****     "    pop r30          \n\t"
 541:/home/arhat109/Arduino/libraries/Arhat/arhat.c ****     "    pop r31          \n\t"
 542:/home/arhat109/Arduino/libraries/Arhat/arhat.c ****     ::
 543:/home/arhat109/Arduino/libraries/Arhat/arhat.c ****     );
 544:/home/arhat109/Arduino/libraries/Arhat/arhat.c **** }
 545:/home/arhat109/Arduino/libraries/Arhat/arhat.c **** 
 546:/home/arhat109/Arduino/libraries/Arhat/arhat.c **** // ==================== for pcint.h functions ========================= //
 547:/home/arhat109/Arduino/libraries/Arhat/arhat.c **** 
 548:/home/arhat109/Arduino/libraries/Arhat/arhat.c **** /**
 549:/home/arhat109/Arduino/libraries/Arhat/arhat.c ****  * –ü–∏—à–µ—Ç –∫–æ–¥ –æ—à–∏–±–∫–∏ –∏–ª–∏ —Ä–µ–∑—É–ª—å—Ç–∞—Ç–∞ –≤ —Å—Ç–∞—Ç—É—Å –∑–∞–º–µ—Ä–∞ –∏ —Å–Ω–
 550:/home/arhat109/Arduino/libraries/Arhat/arhat.c ****  * –ó–∞–æ–¥–Ω–æ –∑–∞–ø—Ä–µ—â–∞–µ—Ç –ø–µ—Ä–µ—Ä—ã–≤–∞–Ω–∏–µ (—Ç–æ–ª—å–∫–æ –¥–ª—è –Ω–æ–≥–∏ —ç—Ç–æ–≥–æ 
 551:/home/arhat109/Arduino/libraries/Arhat/arhat.c ****  */
 552:/home/arhat109/Arduino/libraries/Arhat/arhat.c **** void pcint_end(Pulse * ptrPulse, uint8_t error)
 553:/home/arhat109/Arduino/libraries/Arhat/arhat.c **** {
 763               		.loc 1 553 0
 764               		.cfi_startproc
 765               	.LVL38:
 766               	/* prologue: function */
 767               	/* frame size = 0 */
 768               	/* stack size = 0 */
 769               	.L__stack_usage = 0
 554:/home/arhat109/Arduino/libraries/Arhat/arhat.c ****     uint8_t     rpin = ptrPulse->pin;
 770               		.loc 1 554 0
 771 0000 FC01      		movw r30,r24
 772 0002 2385      		ldd r18,Z+11
 773               	.LVL39:
 555:/home/arhat109/Arduino/libraries/Arhat/arhat.c **** 
 556:/home/arhat109/Arduino/libraries/Arhat/arhat.c ****     ptrPulse->state        = error;                             // —Å—Ç–∞—Ç—É—Å –∑–∞–≤–µ—Ä—à–µ–Ω–∏—
 774               		.loc 1 556 0
 775 0004 6287      		std Z+10,r22
 557:/home/arhat109/Arduino/libraries/Arhat/arhat.c **** 
 558:/home/arhat109/Arduino/libraries/Arhat/arhat.c ****     switch( rpin & 0xc0 ){                                      // –∑–∞–ø—Ä–µ—â–∞–µ–º –ø—Ä–µ—Ä—ã–≤–
 776               		.loc 1 558 0
 777 0006 822F      		mov r24,r18
 778               	.LVL40:
 779 0008 807C      		andi r24,lo8(-64)
 780 000a 8034      		cpi r24,lo8(64)
 781 000c 01F0      		breq .L38
 782 000e 8038      		cpi r24,lo8(-128)
 783 0010 01F0      		breq .L39
 784 0012 8111      		cpse r24,__zero_reg__
 785 0014 00C0      		rjmp .L36
 559:/home/arhat109/Arduino/libraries/Arhat/arhat.c ****         case 0x80: PCMSK2 &= ~(((uint8_t)1)<<(rpin&0x3f)); break;
 560:/home/arhat109/Arduino/libraries/Arhat/arhat.c ****         case 0x40: PCMSK1 &= ~(((uint8_t)1)<<(rpin&0x3f)); break;
 561:/home/arhat109/Arduino/libraries/Arhat/arhat.c ****         case 0:    PCMSK0 &= ~(((uint8_t)1)<<(rpin&0x3f)); break;
 786               		.loc 1 561 0
 787 0016 3091 6B00 		lds r19,107
 788 001a 81E0      		ldi r24,lo8(1)
 789 001c 90E0      		ldi r25,0
 790 001e 022E      		mov r0,r18
 791 0020 00C0      		rjmp 2f
 792               		1:
 793 0022 880F      		lsl r24
GAS LISTING /tmp/ccOr00ZN.s 			page 25


 794               		2:
 795 0024 0A94      		dec r0
 796 0026 02F4      		brpl 1b
 797 0028 8095      		com r24
 798 002a 8323      		and r24,r19
 799 002c 8093 6B00 		sts 107,r24
 800 0030 00C0      		rjmp .L36
 801               	.L39:
 559:/home/arhat109/Arduino/libraries/Arhat/arhat.c ****         case 0x80: PCMSK2 &= ~(((uint8_t)1)<<(rpin&0x3f)); break;
 802               		.loc 1 559 0
 803 0032 3091 6D00 		lds r19,109
 804 0036 2F73      		andi r18,lo8(63)
 805               	.LVL41:
 806 0038 81E0      		ldi r24,lo8(1)
 807 003a 90E0      		ldi r25,0
 808 003c 022E      		mov r0,r18
 809 003e 00C0      		rjmp 2f
 810               		1:
 811 0040 880F      		lsl r24
 812               		2:
 813 0042 0A94      		dec r0
 814 0044 02F4      		brpl 1b
 815 0046 8095      		com r24
 816 0048 8323      		and r24,r19
 817 004a 8093 6D00 		sts 109,r24
 818               	.LVL42:
 819 004e 0895      		ret
 820               	.LVL43:
 821               	.L38:
 560:/home/arhat109/Arduino/libraries/Arhat/arhat.c ****         case 0:    PCMSK0 &= ~(((uint8_t)1)<<(rpin&0x3f)); break;
 822               		.loc 1 560 0
 823 0050 3091 6C00 		lds r19,108
 824 0054 2F73      		andi r18,lo8(63)
 825               	.LVL44:
 826 0056 81E0      		ldi r24,lo8(1)
 827 0058 90E0      		ldi r25,0
 828 005a 022E      		mov r0,r18
 829 005c 00C0      		rjmp 2f
 830               		1:
 831 005e 880F      		lsl r24
 832               		2:
 833 0060 0A94      		dec r0
 834 0062 02F4      		brpl 1b
 835 0064 8095      		com r24
 836 0066 8323      		and r24,r19
 837 0068 8093 6C00 		sts 108,r24
 838               	.LVL45:
 839 006c 0895      		ret
 840               	.LVL46:
 841               	.L36:
 842 006e 0895      		ret
 843               		.cfi_endproc
 844               	.LFE14:
 845               		.size	pcint_end, .-pcint_end
 846               		.section	.text.pcint_micros,"ax",@progbits
 847               	.global	pcint_micros
 848               		.type	pcint_micros, @function
GAS LISTING /tmp/ccOr00ZN.s 			page 26


 849               	pcint_micros:
 850               	.LFB15:
 562:/home/arhat109/Arduino/libraries/Arhat/arhat.c ****     }
 563:/home/arhat109/Arduino/libraries/Arhat/arhat.c **** }
 564:/home/arhat109/Arduino/libraries/Arhat/arhat.c **** 
 565:/home/arhat109/Arduino/libraries/Arhat/arhat.c **** /**
 566:/home/arhat109/Arduino/libraries/Arhat/arhat.c ****  * –ß–∞—Å—Ç—å –æ–±—Ä–∞–±–æ—Ç—á–∏–∫–∞ –ø—Ä–µ—Ä—ã–≤–∞–Ω–∏—è PCINT, –∏–∑–º–µ—Ä—è—é—â–∞—è –¥–ª–∏—Ç–µ–ª—
 567:/home/arhat109/Arduino/libraries/Arhat/arhat.c ****  * –≤—ã–∫–ª—é—á–∞–µ—Ç –æ–±—Ä–∞–±–æ—Ç—á–∏–∫ –ø—Ä–µ—Ä—ã–≤–∞–Ω–∏—è –∏ –∏–∑–º–µ–Ω—è–µ—Ç —Å—Ç–∞—Ç—É—Å —Å
 568:/home/arhat109/Arduino/libraries/Arhat/arhat.c ****  *
 569:/home/arhat109/Arduino/libraries/Arhat/arhat.c ****  * @return ptrPulse(ptr)->res; -- state==PULSE_OK? pulse time in micros : not valid data.
 570:/home/arhat109/Arduino/libraries/Arhat/arhat.c ****  */
 571:/home/arhat109/Arduino/libraries/Arhat/arhat.c **** void pcint_micros( void *ptr, uint8_t oldBit )
 572:/home/arhat109/Arduino/libraries/Arhat/arhat.c **** {
 851               		.loc 1 572 0
 852               		.cfi_startproc
 853               	.LVL47:
 854 0000 0F93      		push r16
 855               	.LCFI12:
 856               		.cfi_def_cfa_offset 4
 857               		.cfi_offset 16, -3
 858 0002 1F93      		push r17
 859               	.LCFI13:
 860               		.cfi_def_cfa_offset 5
 861               		.cfi_offset 17, -4
 862 0004 CF93      		push r28
 863               	.LCFI14:
 864               		.cfi_def_cfa_offset 6
 865               		.cfi_offset 28, -5
 866 0006 DF93      		push r29
 867               	.LCFI15:
 868               		.cfi_def_cfa_offset 7
 869               		.cfi_offset 29, -6
 870               	/* prologue: function */
 871               	/* frame size = 0 */
 872               	/* stack size = 4 */
 873               	.L__stack_usage = 4
 874 0008 EC01      		movw r28,r24
 573:/home/arhat109/Arduino/libraries/Arhat/arhat.c ****     if( ptrPulse(ptr)->state == PULSE_BUSY )
 875               		.loc 1 573 0
 876 000a 8A85      		ldd r24,Y+10
 877               	.LVL48:
 878 000c 8130      		cpi r24,lo8(1)
 879 000e 01F4      		brne .L42
 574:/home/arhat109/Arduino/libraries/Arhat/arhat.c ****     {
 575:/home/arhat109/Arduino/libraries/Arhat/arhat.c ****         // first measuring! store current micros()
 576:/home/arhat109/Arduino/libraries/Arhat/arhat.c ****         ptrPulse(ptr)->res   = micros();
 880               		.loc 1 576 0
 881 0010 0E94 0000 		call time_micros
 882               	.LVL49:
 883 0014 6883      		st Y,r22
 884 0016 7983      		std Y+1,r23
 885 0018 8A83      		std Y+2,r24
 886 001a 9B83      		std Y+3,r25
 577:/home/arhat109/Arduino/libraries/Arhat/arhat.c ****         ptrPulse(ptr)->state = PULSE_SECOND;
 887               		.loc 1 577 0
 888 001c 82E0      		ldi r24,lo8(2)
 889 001e 8A87      		std Y+10,r24
GAS LISTING /tmp/ccOr00ZN.s 			page 27


 890               	/* epilogue start */
 578:/home/arhat109/Arduino/libraries/Arhat/arhat.c ****     } else {
 579:/home/arhat109/Arduino/libraries/Arhat/arhat.c ****         // second measuring or mistake: calc pulse time anyone:
 580:/home/arhat109/Arduino/libraries/Arhat/arhat.c ****         ptrPulse(ptr)->res = micros() - ptrPulse(ptr)->res;
 581:/home/arhat109/Arduino/libraries/Arhat/arhat.c **** 
 582:/home/arhat109/Arduino/libraries/Arhat/arhat.c ****         pcint_end(
 583:/home/arhat109/Arduino/libraries/Arhat/arhat.c ****             ptrPulse(ptr)
 584:/home/arhat109/Arduino/libraries/Arhat/arhat.c ****             , (ptrPulse(ptr)->state == PULSE_SECOND? PULSE_OK : PULSE_ERROR)
 585:/home/arhat109/Arduino/libraries/Arhat/arhat.c ****         );
 586:/home/arhat109/Arduino/libraries/Arhat/arhat.c ****     }
 587:/home/arhat109/Arduino/libraries/Arhat/arhat.c **** }
 891               		.loc 1 587 0
 892 0020 DF91      		pop r29
 893 0022 CF91      		pop r28
 894               	.LVL50:
 895 0024 1F91      		pop r17
 896 0026 0F91      		pop r16
 897 0028 0895      		ret
 898               	.LVL51:
 899               	.L42:
 580:/home/arhat109/Arduino/libraries/Arhat/arhat.c **** 
 900               		.loc 1 580 0
 901 002a 0E94 0000 		call time_micros
 902               	.LVL52:
 903 002e 0881      		ld r16,Y
 904 0030 1981      		ldd r17,Y+1
 905 0032 2A81      		ldd r18,Y+2
 906 0034 3B81      		ldd r19,Y+3
 907 0036 601B      		sub r22,r16
 908 0038 710B      		sbc r23,r17
 909 003a 820B      		sbc r24,r18
 910 003c 930B      		sbc r25,r19
 911 003e 6883      		st Y,r22
 912 0040 7983      		std Y+1,r23
 913 0042 8A83      		std Y+2,r24
 914 0044 9B83      		std Y+3,r25
 582:/home/arhat109/Arduino/libraries/Arhat/arhat.c ****             ptrPulse(ptr)
 915               		.loc 1 582 0
 916 0046 8A85      		ldd r24,Y+10
 917 0048 8230      		cpi r24,lo8(2)
 918 004a 01F4      		brne .L45
 919 004c 63E0      		ldi r22,lo8(3)
 920 004e 00C0      		rjmp .L44
 921               	.L45:
 922 0050 61E2      		ldi r22,lo8(33)
 923               	.L44:
 582:/home/arhat109/Arduino/libraries/Arhat/arhat.c ****             ptrPulse(ptr)
 924               		.loc 1 582 0 is_stmt 0 discriminator 3
 925 0052 CE01      		movw r24,r28
 926               	/* epilogue start */
 927               		.loc 1 587 0 is_stmt 1 discriminator 3
 928 0054 DF91      		pop r29
 929 0056 CF91      		pop r28
 930               	.LVL53:
 931 0058 1F91      		pop r17
 932 005a 0F91      		pop r16
 582:/home/arhat109/Arduino/libraries/Arhat/arhat.c ****             ptrPulse(ptr)
GAS LISTING /tmp/ccOr00ZN.s 			page 28


 933               		.loc 1 582 0 discriminator 3
 934 005c 0C94 0000 		jmp pcint_end
 935               	.LVL54:
 936               		.cfi_endproc
 937               	.LFE15:
 938               		.size	pcint_micros, .-pcint_micros
 939               		.section	.text.pcint_encoder,"ax",@progbits
 940               	.global	pcint_encoder
 941               		.type	pcint_encoder, @function
 942               	pcint_encoder:
 943               	.LFB16:
 588:/home/arhat109/Arduino/libraries/Arhat/arhat.c **** 
 589:/home/arhat109/Arduino/libraries/Arhat/arhat.c **** /**
 590:/home/arhat109/Arduino/libraries/Arhat/arhat.c ****  * –ß–∞—Å—Ç—å –æ–±—Ä–∞–±–æ—Ç—á–∏–∫–∞ –ø—Ä–µ—Ä—ã–≤–∞–Ω–∏—è PCINT —É–≤–µ–ª–∏—á–∏–≤–∞—é—â–∞—è —Å—á–µ—Ç
 591:/home/arhat109/Arduino/libraries/Arhat/arhat.c ****  * –ø—Ä–æ–¥–æ–ª–∂–∞–µ—Ç –ø–æ–¥—Å—á–µ—Ç –¥–æ –∏—Å—Ç–µ—á–µ–Ω–∏—è —Ç–∞–π–º–∞—É—Ç–∞ –∏–ª–∏ –ø–æ –∏–∑–º–
 592:/home/arhat109/Arduino/libraries/Arhat/arhat.c ****  * —Ç–∞–∫–∂–µ –≤—ã–∫–ª—é—á–∞–µ—Ç –æ–±—Ä–∞–±–æ—Ç—á–∏–∫ —Å–∞–º–æ—Å—Ç–æ—è—Ç–µ–ª—å–Ω–æ. –¢–æ–ª—å–∫–æ –ø
 593:/home/arhat109/Arduino/libraries/Arhat/arhat.c ****  *
 594:/home/arhat109/Arduino/libraries/Arhat/arhat.c ****  * @param  uint8_t oldBit      -- –ø—Ä–µ–¥—ã–¥—É—â–µ–µ —Å–æ—Å—Ç–æ—è–Ω–∏–µ –Ω–æ–≥–∏ –ø—Ä–µ—Ä—ã–≤–∞–Ω
 595:/home/arhat109/Arduino/libraries/Arhat/arhat.c ****  * @return ptrPulse(ptr)->res; -- —á–∏—Å–ª–æ –Ω–∞–∫–æ–ø–ª–µ–Ω–Ω—ã—Ö –∏–º–ø—É–ª—å—Å–æ–≤
 596:/home/arhat109/Arduino/libraries/Arhat/arhat.c ****  *
 597:/home/arhat109/Arduino/libraries/Arhat/arhat.c ****  */
 598:/home/arhat109/Arduino/libraries/Arhat/arhat.c **** void pcint_encoder( void *ptr, uint8_t oldBit )
 599:/home/arhat109/Arduino/libraries/Arhat/arhat.c **** {
 944               		.loc 1 599 0
 945               		.cfi_startproc
 946               	.LVL55:
 947               	/* prologue: function */
 948               	/* frame size = 0 */
 949               	/* stack size = 0 */
 950               	.L__stack_usage = 0
 951 0000 262F      		mov r18,r22
 600:/home/arhat109/Arduino/libraries/Arhat/arhat.c ****     uint8_t addition;
 601:/home/arhat109/Arduino/libraries/Arhat/arhat.c **** 
 602:/home/arhat109/Arduino/libraries/Arhat/arhat.c ****     switch( ptrPulse(ptr)->state )
 952               		.loc 1 602 0
 953 0002 FC01      		movw r30,r24
 954 0004 6285      		ldd r22,Z+10
 955               	.LVL56:
 956 0006 6B30      		cpi r22,lo8(11)
 957 0008 01F0      		breq .L49
 958 000a 6C30      		cpi r22,lo8(12)
 959 000c 01F0      		breq .L50
 960 000e 6A30      		cpi r22,lo8(10)
 961 0010 01F4      		brne .L55
 603:/home/arhat109/Arduino/libraries/Arhat/arhat.c ****     {
 604:/home/arhat109/Arduino/libraries/Arhat/arhat.c ****         case PULSE_RAISING: addition = 1-(int8_t)oldBit; break;         // –ø—Ä–∏—Ä–æ—Å—Ç –µ—Å–ª–∏ 
 962               		.loc 1 604 0
 963 0012 31E0      		ldi r19,lo8(1)
 964 0014 321B      		sub r19,r18
 965 0016 232F      		mov r18,r19
 966               	.LVL57:
 967 0018 00C0      		rjmp .L49
 968               	.LVL58:
 969               	.L55:
 605:/home/arhat109/Arduino/libraries/Arhat/arhat.c ****         case PULSE_FAILING: addition = oldBit;           break;         // —Ç–æ–ª—å–∫–æ –∏–∑ 1 –≤ 0
 606:/home/arhat109/Arduino/libraries/Arhat/arhat.c ****         case PULSE_BOTH:    addition = 1;                break;         // –ø–æ—Ñ–∏–≥ –∫–∞–∫ –±—ã–ª
 607:/home/arhat109/Arduino/libraries/Arhat/arhat.c ****         default:
GAS LISTING /tmp/ccOr00ZN.s 			page 29


 608:/home/arhat109/Arduino/libraries/Arhat/arhat.c ****             // —Å—Ç–∞—Ç—É—Å –∏–∑–º–µ–Ω–µ–Ω –∏–∑–≤–Ω–µ: –æ—Å—Ç–∞–Ω–æ–≤ –∏–∑–º–µ—Ä–µ–Ω–∏–π –±–µ–∑ –∏–
 609:/home/arhat109/Arduino/libraries/Arhat/arhat.c ****             pcint_end( ptrPulse(ptr), ptrPulse(ptr)->state);
 970               		.loc 1 609 0
 971 001a 0C94 0000 		jmp pcint_end
 972               	.LVL59:
 973               	.L50:
 606:/home/arhat109/Arduino/libraries/Arhat/arhat.c ****         default:
 974               		.loc 1 606 0
 975 001e 21E0      		ldi r18,lo8(1)
 976               	.LVL60:
 977               	.L49:
 610:/home/arhat109/Arduino/libraries/Arhat/arhat.c ****             return;
 611:/home/arhat109/Arduino/libraries/Arhat/arhat.c ****     }
 612:/home/arhat109/Arduino/libraries/Arhat/arhat.c ****     ptrPulse(ptr)->res += addition;
 978               		.loc 1 612 0
 979 0020 FC01      		movw r30,r24
 980 0022 4081      		ld r20,Z
 981 0024 5181      		ldd r21,Z+1
 982 0026 6281      		ldd r22,Z+2
 983 0028 7381      		ldd r23,Z+3
 984 002a 420F      		add r20,r18
 985 002c 511D      		adc r21,__zero_reg__
 986 002e 611D      		adc r22,__zero_reg__
 987 0030 711D      		adc r23,__zero_reg__
 988 0032 4083      		st Z,r20
 989 0034 5183      		std Z+1,r21
 990 0036 6283      		std Z+2,r22
 991 0038 7383      		std Z+3,r23
 992 003a 0895      		ret
 993               		.cfi_endproc
 994               	.LFE16:
 995               		.size	pcint_encoder, .-pcint_encoder
 996               	.global	timer0_hook_run
 997               		.section	.bss.timer0_hook_run,"aw",@nobits
 998               		.type	timer0_hook_run, @object
 999               		.size	timer0_hook_run, 1
 1000               	timer0_hook_run:
 1001 0000 00        		.zero	1
 1002               	.global	timer0_hook
 1003               		.section	.bss.timer0_hook,"aw",@nobits
 1004               		.type	timer0_hook, @object
 1005               		.size	timer0_hook, 2
 1006               	timer0_hook:
 1007 0000 0000      		.zero	2
 1008               	.global	timer0_overflow_count
 1009               		.section	.bss.timer0_overflow_count,"aw",@nobits
 1010               		.type	timer0_overflow_count, @object
 1011               		.size	timer0_overflow_count, 4
 1012               	timer0_overflow_count:
 1013 0000 0000 0000 		.zero	4
 1014               		.text
 1015               	.Letext0:
 1016               		.file 2 "/home/arhat109/progs/arduino-1.6.4/hardware/tools/avr/avr/include/stdint.h"
 1017               		.file 3 "/home/arhat109/Arduino/libraries/Arhat/arhat.h"